AARCH64 GAS  obj/Ch15_05.s 			page 1


 GNU assembler version 2.35.2 (aarch64-linux-gnu)
	 using BFD version (GNU Binutils for Debian) 2.35.2.
 options passed	: -I -I -EL -march=armv8-a+simd -mabi=lp64 -aghl=obj/Ch15_05.lst 
 input file    	: obj/Ch15_05.s
 output file   	: obj/Ch15_05.o
 target        	: aarch64-unknown-linux-gnu
 time stamp    	: 2022-10-19T02:22:54.000-0400

AARCH64 GAS  obj/Ch15_05.s 			page 2


   1              		.arch armv8-a
   2              		.file	"Ch15_05.cpp"
   3              		.text
   4              	.Ltext0:
   5              		.align	2
   6              		.p2align 4,,11
   7              		.type	_Z21ConvertRgbToGsCpp_ompPhPK5RGB32mPKfi._omp_fn.0, %function
   8              	_Z21ConvertRgbToGsCpp_ompPhPK5RGB32mPKfi._omp_fn.0:
   9              	.LVL0:
  10              	.LFB2172:
  11              		.file 1 "Ch15_05.cpp"
   1:Ch15_05.cpp   **** //------------------------------------------------
   2:Ch15_05.cpp   **** //               Ch15_05.cpp
   3:Ch15_05.cpp   **** //------------------------------------------------
   4:Ch15_05.cpp   **** 
   5:Ch15_05.cpp   **** #include <iostream>
   6:Ch15_05.cpp   **** #include <stdexcept>
   7:Ch15_05.cpp   **** #include <omp.h>
   8:Ch15_05.cpp   **** #include "Ch15_05.h"
   9:Ch15_05.cpp   **** #include "AlignedMem.h"
  10:Ch15_05.cpp   **** #include "ImageMatrix.h"
  11:Ch15_05.cpp   **** 
  12:Ch15_05.cpp   **** using namespace std;
  13:Ch15_05.cpp   **** 
  14:Ch15_05.cpp   **** // Image size limits
  15:Ch15_05.cpp   **** size_t g_NumPixelsMin = 16;
  16:Ch15_05.cpp   **** size_t g_NumPixelsMax = 256 * 1024 * 1024;
  17:Ch15_05.cpp   **** 
  18:Ch15_05.cpp   **** // RGB to grayscale conversion coefficients
  19:Ch15_05.cpp   **** float g_Coef[] {0.2126f, 0.7152f, 0.0722f};
  20:Ch15_05.cpp   **** 
  21:Ch15_05.cpp   **** bool CompareGsImages(const uint8_t* pb_gs1,const uint8_t* pb_gs2, size_t num_pixels)
  22:Ch15_05.cpp   **** {
  23:Ch15_05.cpp   ****     for (size_t i = 0; i < num_pixels; i++)
  24:Ch15_05.cpp   ****     {
  25:Ch15_05.cpp   ****         if (abs((int)pb_gs1[i] - (int)pb_gs2[i]) > 1)
  26:Ch15_05.cpp   ****             return false;
  27:Ch15_05.cpp   ****     }
  28:Ch15_05.cpp   **** 
  29:Ch15_05.cpp   ****     return true;
  30:Ch15_05.cpp   **** }
  31:Ch15_05.cpp   **** 
  32:Ch15_05.cpp   **** bool ConvertRgbToGsCpp(uint8_t* pb_gs, const RGB32* pb_rgb, size_t num_pixels, const float* coef)
  33:Ch15_05.cpp   **** {
  34:Ch15_05.cpp   ****     if (num_pixels < g_NumPixelsMin || num_pixels > g_NumPixelsMax)
  35:Ch15_05.cpp   ****         return false;
  36:Ch15_05.cpp   **** 
  37:Ch15_05.cpp   ****     if (num_pixels % 16 != 0)
  38:Ch15_05.cpp   ****         return false;
  39:Ch15_05.cpp   **** 
  40:Ch15_05.cpp   ****     if (!AlignedMem::IsAligned(pb_gs, 16))
  41:Ch15_05.cpp   ****         return false;
  42:Ch15_05.cpp   ****     if (!AlignedMem::IsAligned(pb_rgb, 16))
  43:Ch15_05.cpp   ****         return false;
  44:Ch15_05.cpp   **** 
  45:Ch15_05.cpp   ****     for (size_t i = 0; i < num_pixels; i++)
  46:Ch15_05.cpp   ****     {
AARCH64 GAS  obj/Ch15_05.s 			page 3


  47:Ch15_05.cpp   ****         uint8_t r = pb_rgb[i].m_R;
  48:Ch15_05.cpp   ****         uint8_t g = pb_rgb[i].m_G;
  49:Ch15_05.cpp   ****         uint8_t b = pb_rgb[i].m_B;
  50:Ch15_05.cpp   **** 
  51:Ch15_05.cpp   ****         float gs_temp = r * coef[0] + g * coef[1] + b * coef[2] + 0.5f;
  52:Ch15_05.cpp   **** 
  53:Ch15_05.cpp   ****         if (gs_temp < 0.0f)
  54:Ch15_05.cpp   ****             gs_temp = 0.0f;
  55:Ch15_05.cpp   ****         else if (gs_temp > 255.0f)
  56:Ch15_05.cpp   ****             gs_temp = 255.0f;
  57:Ch15_05.cpp   **** 
  58:Ch15_05.cpp   ****         pb_gs[i] = (uint8_t)gs_temp;
  59:Ch15_05.cpp   ****     }
  60:Ch15_05.cpp   **** 
  61:Ch15_05.cpp   ****     return true;
  62:Ch15_05.cpp   **** }
  63:Ch15_05.cpp   **** 
  64:Ch15_05.cpp   **** long unsigned int i;
  65:Ch15_05.cpp   **** void ConvertRgbToGsCpp_omp(uint8_t* pb_gs, const RGB32* pb_rgb, size_t num_pixels, const float* coe
  66:Ch15_05.cpp   **** {   
  67:Ch15_05.cpp   ****     omp_set_num_threads(n_threads);
  68:Ch15_05.cpp   ****     #pragma omp parallel
  12              		.loc 1 68 9 view -0
  13              		.cfi_startproc
  14              		.loc 1 68 9 is_stmt 0 view .LVU1
  15 0000 FD7BBDA9 		stp	x29, x30, [sp, -48]!
  16              		.cfi_def_cfa_offset 48
  17              		.cfi_offset 29, -48
  18              		.cfi_offset 30, -40
  19              	.LVL1:
  20              		.loc 1 68 9 view .LVU2
  21 0004 FD030091 		mov	x29, sp
  22 0008 F51300F9 		str	x21, [sp, 32]
  23              		.cfi_offset 21, -16
  24 000c 150840F9 		ldr	x21, [x0, 16]
  25              	.LVL2:
  69:Ch15_05.cpp   **** 	{ 
  26              		.loc 1 69 2 is_stmt 1 view .LVU3
  70:Ch15_05.cpp   **** 	    #pragma omp for
  27              		.loc 1 70 9 view .LVU4
  28 0010 351600B4 		cbz	x21, .L1
  29 0014 F35301A9 		stp	x19, x20, [sp, 16]
  30              		.cfi_offset 20, -24
  31              		.cfi_offset 19, -32
  32 0018 F40300AA 		mov	x20, x0
  33 001c 00000094 		bl	omp_get_num_threads
  34              	.LVL3:
  35              		.loc 1 70 9 is_stmt 0 view .LVU5
  36 0020 137C4093 		sxtw	x19, w0
  37 0024 00000094 		bl	omp_get_thread_num
  38              	.LVL4:
  39 0028 067C4093 		sxtw	x6, w0
  40 002c A10AD39A 		udiv	x1, x21, x19
  41 0030 22D4139B 		msub	x2, x1, x19, x21
  42 0034 DF0002EB 		cmp	x6, x2
  43 0038 E3180054 		bcc	.L3
  44              	.L13:
AARCH64 GAS  obj/Ch15_05.s 			page 4


  45 003c 2608069B 		madd	x6, x1, x6, x2
  46 0040 2700068B 		add	x7, x1, x6
  47 0044 DF0007EB 		cmp	x6, x7
  48 0048 42140054 		bcs	.L23
  68:Ch15_05.cpp   **** 	{ 
  49              		.loc 1 68 9 view .LVU6
  50 004c 880A40A9 		ldp	x8, x2, [x20]
  51 0050 210400D1 		sub	x1, x1, #1
  52 0054 830E40F9 		ldr	x3, [x20, 24]
  53 0058 4008078B 		add	x0, x2, x7, lsl 2
  54 005c 0501068B 		add	x5, x8, x6
  55 0060 000400D1 		sub	x0, x0, #1
  56 0064 0901078B 		add	x9, x8, x7
  57 0068 1F0005EB 		cmp	x0, x5
  58 006c 4408068B 		add	x4, x2, x6, lsl 2
  59 0070 60300091 		add	x0, x3, 12
  60 0074 208144FA 		ccmp	x9, x4, 0, hi
  61 0078 EA879F1A 		cset	w10, ls
  62 007c BF0000EB 		cmp	x5, x0
  63 0080 623049FA 		ccmp	x3, x9, 2, cc
  64 0084 20284FFA 		ccmp	x1, 15, 0, cs
  65 0088 E0979F1A 		cset	w0, hi
  66 008c 5F01006A 		tst	w10, w0
  67 0090 80120054 		beq	.L5
  68 0094 6590402D 		ldp	s5, s4, [x3, 4]
  69              	.LBB752:
  70              	.LBB753:
  71:Ch15_05.cpp   **** 	    for(i=0;i<num_pixels;i++)
  72:Ch15_05.cpp   **** 		{
  73:Ch15_05.cpp   **** 			uint8_t r = pb_rgb[i].m_R;
  74:Ch15_05.cpp   **** 			uint8_t g = pb_rgb[i].m_G;
  75:Ch15_05.cpp   **** 			uint8_t b = pb_rgb[i].m_B;
  76:Ch15_05.cpp   **** 	
  77:Ch15_05.cpp   **** 			float gs_temp = r * coef[0] + g * coef[1] + b * coef[2] + 0.5f;
  78:Ch15_05.cpp   **** 	
  79:Ch15_05.cpp   **** 			if (gs_temp < 0.0f)
  80:Ch15_05.cpp   **** 				gs_temp = 0.0f;
  81:Ch15_05.cpp   **** 			else if (gs_temp > 255.0f)
  71              		.loc 1 81 9 view .LVU7
  72 0098 09000090 		adrp	x9, .LC0
  73 009c 20FC44D3 		lsr	x0, x1, 4
  74 00a0 67C8404D 		ld1r	{v7.4s}, [x3]
  77:Ch15_05.cpp   **** 	
  75              		.loc 1 77 10 view .LVU8
  76 00a4 10F4034F 		fmov	v16.4s, 5.0e-1
  77              		.loc 1 81 9 view .LVU9
  78 00a8 2601C03D 		ldr	q6, [x9, #:lo12:.LC0]
  79 00ac 8018008B 		add	x0, x4, x0, lsl 6
  82:Ch15_05.cpp   **** 				gs_temp = 255.0f;
  83:Ch15_05.cpp   **** 	       
  84:Ch15_05.cpp   **** 			pb_gs[i] = (uint8_t)gs_temp;
  80              		.loc 1 84 13 view .LVU10
  81 00b0 1104006F 		mvni	v17.4s, 0
  82 00b4 A504044E 		dup	v5.4s, v5.s[0]
  83 00b8 8404044E 		dup	v4.4s, v4.s[0]
  84 00bc 1F2003D5 		.p2align 3,,7
  85              	.L6:
AARCH64 GAS  obj/Ch15_05.s 			page 5


  86              	.LBE753:
  72:Ch15_05.cpp   **** 			uint8_t r = pb_rgb[i].m_R;
  87              		.loc 1 72 3 is_stmt 1 discriminator 1 view .LVU11
  88              	.LBB754:
  73:Ch15_05.cpp   **** 			uint8_t g = pb_rgb[i].m_G;
  89              		.loc 1 73 4 discriminator 1 view .LVU12
  73:Ch15_05.cpp   **** 			uint8_t g = pb_rgb[i].m_G;
  90              		.loc 1 73 12 is_stmt 0 discriminator 1 view .LVU13
  91 00c0 9800DF4C 		ld4	{v24.16b - v27.16b}, [x4], 64
  74:Ch15_05.cpp   **** 			uint8_t b = pb_rgb[i].m_B;
  92              		.loc 1 74 4 is_stmt 1 discriminator 1 view .LVU14
  75:Ch15_05.cpp   **** 	
  93              		.loc 1 75 4 discriminator 1 view .LVU15
  77:Ch15_05.cpp   **** 	
  94              		.loc 1 77 4 discriminator 1 view .LVU16
  77:Ch15_05.cpp   **** 	
  95              		.loc 1 77 34 is_stmt 0 discriminator 1 view .LVU17
  96 00c4 21A7082F 		uxtl	v1.8h, v25.8b
  97 00c8 20A7086F 		uxtl2	v0.8h, v25.16b
  77:Ch15_05.cpp   **** 	
  98              		.loc 1 77 20 discriminator 1 view .LVU18
  99 00cc 12A7082F 		uxtl	v18.8h, v24.8b
 100 00d0 14A7086F 		uxtl2	v20.8h, v24.16b
  77:Ch15_05.cpp   **** 	
 101              		.loc 1 77 34 discriminator 1 view .LVU19
 102 00d4 23A4106F 		uxtl2	v3.4s, v1.8h
 103 00d8 02A4102F 		uxtl	v2.4s, v0.4h
 104 00dc 21A4102F 		uxtl	v1.4s, v1.4h
 105 00e0 00A4106F 		uxtl2	v0.4s, v0.8h
  77:Ch15_05.cpp   **** 	
 106              		.loc 1 77 20 discriminator 1 view .LVU20
 107 00e4 56A6102F 		uxtl	v22.4s, v18.4h
  77:Ch15_05.cpp   **** 	
 108              		.loc 1 77 48 discriminator 1 view .LVU21
 109 00e8 53A7082F 		uxtl	v19.8h, v26.8b
  77:Ch15_05.cpp   **** 	
 110              		.loc 1 77 20 discriminator 1 view .LVU22
 111 00ec 55A6106F 		uxtl2	v21.4s, v18.8h
 112 00f0 98A6102F 		uxtl	v24.4s, v20.4h
  77:Ch15_05.cpp   **** 	
 113              		.loc 1 77 48 discriminator 1 view .LVU23
 114 00f4 52A7086F 		uxtl2	v18.8h, v26.16b
  77:Ch15_05.cpp   **** 	
 115              		.loc 1 77 36 discriminator 1 view .LVU24
 116 00f8 63D8214E 		scvtf	v3.4s, v3.4s
 117 00fc 21D8214E 		scvtf	v1.4s, v1.4s
 118 0100 42D8214E 		scvtf	v2.4s, v2.4s
 119 0104 00D8214E 		scvtf	v0.4s, v0.4s
  77:Ch15_05.cpp   **** 	
 120              		.loc 1 77 20 discriminator 1 view .LVU25
 121 0108 94A6106F 		uxtl2	v20.4s, v20.8h
  77:Ch15_05.cpp   **** 	
 122              		.loc 1 77 22 discriminator 1 view .LVU26
 123 010c D9DA214E 		scvtf	v25.4s, v22.4s
  77:Ch15_05.cpp   **** 	
 124              		.loc 1 77 48 discriminator 1 view .LVU27
 125 0110 77A6102F 		uxtl	v23.4s, v19.4h
AARCH64 GAS  obj/Ch15_05.s 			page 6


 126 0114 56A6102F 		uxtl	v22.4s, v18.4h
  77:Ch15_05.cpp   **** 	
 127              		.loc 1 77 22 discriminator 1 view .LVU28
 128 0118 B5DA214E 		scvtf	v21.4s, v21.4s
 129 011c 18DB214E 		scvtf	v24.4s, v24.4s
 130 0120 94DA214E 		scvtf	v20.4s, v20.4s
  77:Ch15_05.cpp   **** 	
 131              		.loc 1 77 36 discriminator 1 view .LVU29
 132 0124 63DC256E 		fmul	v3.4s, v3.4s, v5.4s
 133 0128 21DC256E 		fmul	v1.4s, v1.4s, v5.4s
  77:Ch15_05.cpp   **** 	
 134              		.loc 1 77 48 discriminator 1 view .LVU30
 135 012c 73A6106F 		uxtl2	v19.4s, v19.8h
  77:Ch15_05.cpp   **** 	
 136              		.loc 1 77 36 discriminator 1 view .LVU31
 137 0130 42DC256E 		fmul	v2.4s, v2.4s, v5.4s
 138 0134 00DC256E 		fmul	v0.4s, v0.4s, v5.4s
  77:Ch15_05.cpp   **** 	
 139              		.loc 1 77 48 discriminator 1 view .LVU32
 140 0138 52A6106F 		uxtl2	v18.4s, v18.8h
  77:Ch15_05.cpp   **** 	
 141              		.loc 1 77 32 discriminator 1 view .LVU33
 142 013c 21CF274E 		fmla	v1.4s, v25.4s, v7.4s
 143 0140 A3CE274E 		fmla	v3.4s, v21.4s, v7.4s
  77:Ch15_05.cpp   **** 	
 144              		.loc 1 77 50 discriminator 1 view .LVU34
 145 0144 73DA214E 		scvtf	v19.4s, v19.4s
 146 0148 F5DA214E 		scvtf	v21.4s, v23.4s
  77:Ch15_05.cpp   **** 	
 147              		.loc 1 77 32 discriminator 1 view .LVU35
 148 014c 02CF274E 		fmla	v2.4s, v24.4s, v7.4s
 149 0150 80CE274E 		fmla	v0.4s, v20.4s, v7.4s
  77:Ch15_05.cpp   **** 	
 150              		.loc 1 77 50 discriminator 1 view .LVU36
 151 0154 52DA214E 		scvtf	v18.4s, v18.4s
 152 0158 D4DA214E 		scvtf	v20.4s, v22.4s
  77:Ch15_05.cpp   **** 	
 153              		.loc 1 77 46 discriminator 1 view .LVU37
 154 015c A1CE244E 		fmla	v1.4s, v21.4s, v4.4s
 155 0160 63CE244E 		fmla	v3.4s, v19.4s, v4.4s
 156 0164 40CE244E 		fmla	v0.4s, v18.4s, v4.4s
 157 0168 82CE244E 		fmla	v2.4s, v20.4s, v4.4s
  77:Ch15_05.cpp   **** 	
 158              		.loc 1 77 10 discriminator 1 view .LVU38
 159 016c 21D4304E 		fadd	v1.4s, v1.4s, v16.4s
 160 0170 63D4304E 		fadd	v3.4s, v3.4s, v16.4s
 161 0174 00D4304E 		fadd	v0.4s, v0.4s, v16.4s
  79:Ch15_05.cpp   **** 				gs_temp = 0.0f;
 162              		.loc 1 79 4 is_stmt 1 discriminator 1 view .LVU39
  81:Ch15_05.cpp   **** 				gs_temp = 255.0f;
 163              		.loc 1 81 9 discriminator 1 view .LVU40
  77:Ch15_05.cpp   **** 	
 164              		.loc 1 77 10 is_stmt 0 discriminator 1 view .LVU41
 165 0178 42D4304E 		fadd	v2.4s, v2.4s, v16.4s
  79:Ch15_05.cpp   **** 				gs_temp = 0.0f;
 166              		.loc 1 79 4 discriminator 1 view .LVU42
 167 017c 35E8A04E 		fcmlt	v21.4s, v1.4s, 0
AARCH64 GAS  obj/Ch15_05.s 			page 7


 168 0180 74E8A04E 		fcmlt	v20.4s, v3.4s, 0
 169 0184 12E8A04E 		fcmlt	v18.4s, v0.4s, 0
 170 0188 53E8A04E 		fcmlt	v19.4s, v2.4s, 0
  81:Ch15_05.cpp   **** 				gs_temp = 255.0f;
 171              		.loc 1 81 9 discriminator 1 view .LVU43
 172 018c 36E4A66E 		fcmgt	v22.4s, v1.4s, v6.4s
 173 0190 77E4A66E 		fcmgt	v23.4s, v3.4s, v6.4s
 174              		.loc 1 84 13 discriminator 1 view .LVU44
 175 0194 BC2A610E 		xtn	v28.4h, v21.4s
 176 0198 9C2A614E 		xtn2	v28.8h, v20.4s
  81:Ch15_05.cpp   **** 				gs_temp = 255.0f;
 177              		.loc 1 81 9 discriminator 1 view .LVU45
 178 019c 5BE4A66E 		fcmgt	v27.4s, v2.4s, v6.4s
 179 01a0 1AE4A66E 		fcmgt	v26.4s, v0.4s, v6.4s
 180              		.loc 1 84 13 discriminator 1 view .LVU46
 181 01a4 782A610E 		xtn	v24.4h, v19.4s
 182 01a8 582A614E 		xtn2	v24.8h, v18.4s
 183              		.loc 1 84 15 discriminator 1 view .LVU47
 184 01ac 21B8A14E 		fcvtzs	v1.4s, v1.4s
 185 01b0 63B8A14E 		fcvtzs	v3.4s, v3.4s
 186              		.loc 1 84 13 discriminator 1 view .LVU48
 187 01b4 B91EB64E 		orr	v25.16b, v21.16b, v22.16b
 188              		.loc 1 84 15 discriminator 1 view .LVU49
 189 01b8 42B8A14E 		fcvtzs	v2.4s, v2.4s
 190              		.loc 1 84 13 discriminator 1 view .LVU50
 191 01bc D51E754E 		bic	v21.16b, v22.16b, v21.16b
 192 01c0 962B210E 		xtn	v22.8b, v28.8h
 193 01c4 162B214E 		xtn2	v22.16b, v24.8h
 194              		.loc 1 84 15 discriminator 1 view .LVU51
 195 01c8 00B8A14E 		fcvtzs	v0.4s, v0.4s
 196 01cc 3C28610E 		xtn	v28.4h, v1.4s
 197 01d0 7C28614E 		xtn2	v28.8h, v3.4s
 198              		.loc 1 84 13 discriminator 1 view .LVU52
 199 01d4 981EB74E 		orr	v24.16b, v20.16b, v23.16b
 200 01d8 411EBA4E 		orr	v1.16b, v18.16b, v26.16b
 201 01dc F41E744E 		bic	v20.16b, v23.16b, v20.16b
 202 01e0 521F724E 		bic	v18.16b, v26.16b, v18.16b
 203 01e4 771EBB4E 		orr	v23.16b, v19.16b, v27.16b
 204 01e8 731F734E 		bic	v19.16b, v27.16b, v19.16b
 205 01ec 2158206E 		not	v1.16b, v1.16b
 206 01f0 BB2A610E 		xtn	v27.4h, v21.4s
 207 01f4 9B2A614E 		xtn2	v27.8h, v20.4s
 208 01f8 145B206E 		not	v20.16b, v24.16b
 209              		.loc 1 84 15 discriminator 1 view .LVU53
 210 01fc 5828610E 		xtn	v24.4h, v2.4s
 211 0200 1828614E 		xtn2	v24.8h, v0.4s
 212              		.loc 1 84 13 discriminator 1 view .LVU54
 213 0204 E35A206E 		not	v3.16b, v23.16b
 214              		.loc 1 84 15 discriminator 1 view .LVU55
 215 0208 822B210E 		xtn	v2.8b, v28.8h
 216 020c 022B214E 		xtn2	v2.16b, v24.8h
 217              		.loc 1 84 4 is_stmt 1 discriminator 1 view .LVU56
 218              		.loc 1 84 13 is_stmt 0 discriminator 1 view .LVU57
 219 0210 355B206E 		not	v21.16b, v25.16b
 220 0214 772A610E 		xtn	v23.4h, v19.4s
 221 0218 572A614E 		xtn2	v23.8h, v18.4s
 222 021c 602B210E 		xtn	v0.8b, v27.8h
AARCH64 GAS  obj/Ch15_05.s 			page 8


 223 0220 E02A214E 		xtn2	v0.16b, v23.8h
 224 0224 7228610E 		xtn	v18.4h, v3.4s
 225 0228 3228614E 		xtn2	v18.8h, v1.4s
 226 022c 201E626E 		bsl	v0.16b, v17.16b, v2.16b
 227 0230 B32A610E 		xtn	v19.4h, v21.4s
 228 0234 932A614E 		xtn2	v19.8h, v20.4s
 229 0238 612A210E 		xtn	v1.8b, v19.8h
 230 023c 412A214E 		xtn2	v1.16b, v18.8h
 231 0240 401CA16E 		bit	v0.16b, v2.16b, v1.16b
 232 0244 001C764E 		bic	v0.16b, v0.16b, v22.16b
 233 0248 A004813C 		str	q0, [x5], 16
 234 024c 9F0000EB 		cmp	x4, x0
 235 0250 81F3FF54 		bne	.L6
 236 0254 21EC7C92 		and	x1, x1, -16
  81:Ch15_05.cpp   **** 				gs_temp = 255.0f;
 237              		.loc 1 81 9 view .LVU58
 238 0258 E46FA852 		mov	w4, 1132396544
 239 025c 2000068B 		add	x0, x1, x6
 240 0260 8700271E 		fmov	s7, w4
  77:Ch15_05.cpp   **** 	
 241              		.loc 1 77 10 view .LVU59
 242 0264 06102C1E 		fmov	s6, 5.0e-1
 243              		.loc 1 84 15 view .LVU60
 244 0268 E41F8052 		mov	w4, 255
 245 026c 4108008B 		add	x1, x2, x0, lsl 2
 246              		.p2align 3,,7
 247              	.L9:
 248              	.LVL5:
 249              		.loc 1 84 15 view .LVU61
 250              	.LBE754:
  72:Ch15_05.cpp   **** 			uint8_t r = pb_rgb[i].m_R;
 251              		.loc 1 72 3 is_stmt 1 view .LVU62
 252              	.LBB755:
  73:Ch15_05.cpp   **** 			uint8_t g = pb_rgb[i].m_G;
 253              		.loc 1 73 4 view .LVU63
  74:Ch15_05.cpp   **** 			uint8_t b = pb_rgb[i].m_B;
 254              		.loc 1 74 4 view .LVU64
  75:Ch15_05.cpp   **** 	
 255              		.loc 1 75 4 view .LVU65
  77:Ch15_05.cpp   **** 	
 256              		.loc 1 77 4 view .LVU66
  77:Ch15_05.cpp   **** 	
 257              		.loc 1 77 34 is_stmt 0 view .LVU67
 258 0270 2104403D 		ldr	b1, [x1, 1]
  79:Ch15_05.cpp   **** 				gs_temp = 0.0f;
 259              		.loc 1 79 4 view .LVU68
 260 0274 02008052 		mov	w2, 0
  77:Ch15_05.cpp   **** 	
 261              		.loc 1 77 20 view .LVU69
 262 0278 2300403D 		ldr	b3, [x1]
  77:Ch15_05.cpp   **** 	
 263              		.loc 1 77 36 view .LVU70
 264 027c 6500402D 		ldp	s5, s0, [x3]
 265 0280 21D8215E 		scvtf	s1, s1
  77:Ch15_05.cpp   **** 	
 266              		.loc 1 77 22 view .LVU71
 267 0284 63D8215E 		scvtf	s3, s3
AARCH64 GAS  obj/Ch15_05.s 			page 9


  77:Ch15_05.cpp   **** 	
 268              		.loc 1 77 48 view .LVU72
 269 0288 2208403D 		ldr	b2, [x1, 2]
  77:Ch15_05.cpp   **** 	
 270              		.loc 1 77 46 view .LVU73
 271 028c 640840BD 		ldr	s4, [x3, 8]
  77:Ch15_05.cpp   **** 	
 272              		.loc 1 77 36 view .LVU74
 273 0290 2008201E 		fmul	s0, s1, s0
  77:Ch15_05.cpp   **** 	
 274              		.loc 1 77 50 view .LVU75
 275 0294 42D8215E 		scvtf	s2, s2
  77:Ch15_05.cpp   **** 	
 276              		.loc 1 77 32 view .LVU76
 277 0298 6000051F 		fmadd	s0, s3, s5, s0
  77:Ch15_05.cpp   **** 	
 278              		.loc 1 77 46 view .LVU77
 279 029c 4000041F 		fmadd	s0, s2, s4, s0
  77:Ch15_05.cpp   **** 	
 280              		.loc 1 77 10 view .LVU78
 281 02a0 0028261E 		fadd	s0, s0, s6
 282              	.LVL6:
  79:Ch15_05.cpp   **** 				gs_temp = 0.0f;
 283              		.loc 1 79 4 is_stmt 1 view .LVU79
 284 02a4 1820201E 		fcmpe	s0, #0.0
 285 02a8 A4000054 		bmi	.L10
  81:Ch15_05.cpp   **** 				gs_temp = 255.0f;
 286              		.loc 1 81 9 view .LVU80
 287              		.loc 1 84 15 is_stmt 0 view .LVU81
 288 02ac 0200391E 		fcvtzu	w2, s0
 289 02b0 1020271E 		fcmpe	s0, s7
 290 02b4 421C0012 		and	w2, w2, 255
 291 02b8 82C0821A 		csel	w2, w4, w2, gt
 292              	.L10:
 293              	.LVL7:
 294              		.loc 1 84 4 is_stmt 1 view .LVU82
 295              		.loc 1 84 13 is_stmt 0 view .LVU83
 296 02bc 02692038 		strb	w2, [x8, x0]
 297              	.LVL8:
 298              		.loc 1 84 13 view .LVU84
 299 02c0 00040091 		add	x0, x0, 1
 300              	.LVL9:
 301              		.loc 1 84 13 view .LVU85
 302 02c4 21100091 		add	x1, x1, 4
 303 02c8 FF0000EB 		cmp	x7, x0
 304 02cc 28FDFF54 		bhi	.L9
 305              	.LVL10:
 306              	.L23:
 307              		.loc 1 84 13 view .LVU86
 308 02d0 F35341A9 		ldp	x19, x20, [sp, 16]
 309              		.cfi_restore 20
 310              		.cfi_restore 19
 311              	.LVL11:
 312              	.L1:
 313              		.loc 1 84 13 view .LVU87
 314              	.LBE755:
 315              	.LBE752:
AARCH64 GAS  obj/Ch15_05.s 			page 10


  68:Ch15_05.cpp   **** 	{ 
 316              		.loc 1 68 9 view .LVU88
 317 02d4 F51340F9 		ldr	x21, [sp, 32]
 318              	.LVL12:
  68:Ch15_05.cpp   **** 	{ 
 319              		.loc 1 68 9 view .LVU89
 320 02d8 FD7BC3A8 		ldp	x29, x30, [sp], 48
 321              		.cfi_restore 30
 322              		.cfi_restore 29
 323              		.cfi_restore 21
 324              		.cfi_def_cfa_offset 0
 325 02dc C0035FD6 		ret
 326              	.LVL13:
 327              		.p2align 2,,3
 328              	.L5:
 329              		.cfi_def_cfa_offset 48
 330              		.cfi_offset 19, -32
 331              		.cfi_offset 20, -24
 332              		.cfi_offset 21, -16
 333              		.cfi_offset 29, -48
 334              		.cfi_offset 30, -40
  68:Ch15_05.cpp   **** 	{ 
 335              		.loc 1 68 9 view .LVU90
 336 02e0 4108078B 		add	x1, x2, x7, lsl 2
 337              	.LBB758:
 338              	.LBB756:
  81:Ch15_05.cpp   **** 				gs_temp = 255.0f;
 339              		.loc 1 81 9 view .LVU91
 340 02e4 E06FA852 		mov	w0, 1132396544
  77:Ch15_05.cpp   **** 	
 341              		.loc 1 77 10 view .LVU92
 342 02e8 07102C1E 		fmov	s7, 5.0e-1
  81:Ch15_05.cpp   **** 				gs_temp = 255.0f;
 343              		.loc 1 81 9 view .LVU93
 344 02ec 0400271E 		fmov	s4, w0
 345              		.loc 1 84 15 view .LVU94
 346 02f0 E61F8052 		mov	w6, 255
 347              	.L12:
 348              	.LVL14:
 349              		.loc 1 84 15 view .LVU95
 350              	.LBE756:
  72:Ch15_05.cpp   **** 			uint8_t r = pb_rgb[i].m_R;
 351              		.loc 1 72 3 is_stmt 1 view .LVU96
 352              	.LBB757:
  73:Ch15_05.cpp   **** 			uint8_t g = pb_rgb[i].m_G;
 353              		.loc 1 73 4 view .LVU97
  74:Ch15_05.cpp   **** 			uint8_t b = pb_rgb[i].m_B;
 354              		.loc 1 74 4 view .LVU98
  75:Ch15_05.cpp   **** 	
 355              		.loc 1 75 4 view .LVU99
  77:Ch15_05.cpp   **** 	
 356              		.loc 1 77 4 view .LVU100
  81:Ch15_05.cpp   **** 				gs_temp = 255.0f;
 357              		.loc 1 81 9 view .LVU101
 358              		.loc 1 84 4 view .LVU102
  77:Ch15_05.cpp   **** 	
 359              		.loc 1 77 34 is_stmt 0 view .LVU103
AARCH64 GAS  obj/Ch15_05.s 			page 11


 360 02f4 8104403D 		ldr	b1, [x4, 1]
  79:Ch15_05.cpp   **** 				gs_temp = 0.0f;
 361              		.loc 1 79 4 view .LVU104
 362 02f8 02008052 		mov	w2, 0
  77:Ch15_05.cpp   **** 	
 363              		.loc 1 77 20 view .LVU105
 364 02fc 8300403D 		ldr	b3, [x4]
 365 0300 84100091 		add	x4, x4, 4
 366              	.LVL15:
  77:Ch15_05.cpp   **** 	
 367              		.loc 1 77 36 view .LVU106
 368 0304 6600402D 		ldp	s6, s0, [x3]
 369 0308 21D8215E 		scvtf	s1, s1
  77:Ch15_05.cpp   **** 	
 370              		.loc 1 77 22 view .LVU107
 371 030c 63D8215E 		scvtf	s3, s3
  77:Ch15_05.cpp   **** 	
 372              		.loc 1 77 48 view .LVU108
 373 0310 82E05F3C 		ldr	b2, [x4, -2]
  77:Ch15_05.cpp   **** 	
 374              		.loc 1 77 46 view .LVU109
 375 0314 650840BD 		ldr	s5, [x3, 8]
  77:Ch15_05.cpp   **** 	
 376              		.loc 1 77 36 view .LVU110
 377 0318 2008201E 		fmul	s0, s1, s0
  77:Ch15_05.cpp   **** 	
 378              		.loc 1 77 50 view .LVU111
 379 031c 42D8215E 		scvtf	s2, s2
  77:Ch15_05.cpp   **** 	
 380              		.loc 1 77 32 view .LVU112
 381 0320 C000031F 		fmadd	s0, s6, s3, s0
  77:Ch15_05.cpp   **** 	
 382              		.loc 1 77 46 view .LVU113
 383 0324 A000021F 		fmadd	s0, s5, s2, s0
  77:Ch15_05.cpp   **** 	
 384              		.loc 1 77 10 view .LVU114
 385 0328 0028271E 		fadd	s0, s0, s7
 386              	.LVL16:
  79:Ch15_05.cpp   **** 				gs_temp = 0.0f;
 387              		.loc 1 79 4 is_stmt 1 view .LVU115
 388              		.loc 1 84 15 is_stmt 0 view .LVU116
 389 032c 0000391E 		fcvtzu	w0, s0
  79:Ch15_05.cpp   **** 				gs_temp = 0.0f;
 390              		.loc 1 79 4 view .LVU117
 391 0330 1820201E 		fcmpe	s0, #0.0
 392              		.loc 1 84 15 view .LVU118
 393 0334 001C0012 		and	w0, w0, 255
  79:Ch15_05.cpp   **** 				gs_temp = 0.0f;
 394              		.loc 1 79 4 view .LVU119
 395 0338 64000054 		bmi	.L11
 396              		.loc 1 84 15 view .LVU120
 397 033c 1020241E 		fcmpe	s0, s4
 398 0340 C2C0801A 		csel	w2, w6, w0, gt
 399              	.L11:
 400              		.loc 1 84 13 view .LVU121
 401 0344 A2140038 		strb	w2, [x5], 1
 402              	.LVL17:
AARCH64 GAS  obj/Ch15_05.s 			page 12


 403              		.loc 1 84 13 view .LVU122
 404 0348 9F0001EB 		cmp	x4, x1
 405 034c 41FDFF54 		bne	.L12
 406 0350 E0FFFF17 		b	.L23
 407              	.LVL18:
 408              		.p2align 2,,3
 409              	.L3:
 410              		.loc 1 84 13 view .LVU123
 411 0354 21040091 		add	x1, x1, 1
 412              	.LBE757:
 413              	.LBE758:
  68:Ch15_05.cpp   **** 	{ 
 414              		.loc 1 68 9 view .LVU124
 415 0358 020080D2 		mov	x2, 0
 416 035c 38FFFF17 		b	.L13
 417              		.cfi_endproc
 418              	.LFE2172:
 419              		.size	_Z21ConvertRgbToGsCpp_ompPhPK5RGB32mPKfi._omp_fn.0, .-_Z21ConvertRgbToGsCpp_ompPhPK5RGB32mPK
 420              		.section	.text.unlikely,"ax",@progbits
 421              		.align	2
 422              		.type	_ZN8ImagePng15FreeRowPointersEb.part.0, %function
 423              	_ZN8ImagePng15FreeRowPointersEb.part.0:
 424              	.LVL19:
 425              	.LFB2175:
 426              		.file 2 "../../Include/ImagePng.h"
   1:../../Include/ImagePng.h **** //-------------------------------------------------
   2:../../Include/ImagePng.h **** //               ImagePng.h
   3:../../Include/ImagePng.h **** //-------------------------------------------------
   4:../../Include/ImagePng.h **** 
   5:../../Include/ImagePng.h **** // The code in this module is a modified version of the code
   6:../../Include/ImagePng.h **** // available on GitHub at https://gist.github.com/niw/5963798.
   7:../../Include/ImagePng.h **** //
   8:../../Include/ImagePng.h **** // Also check http://libpng.org/pub/png/libpng.html for more
   9:../../Include/ImagePng.h **** // information about LIBPNG, especially known security issues.
  10:../../Include/ImagePng.h **** 
  11:../../Include/ImagePng.h **** #include <string>
  12:../../Include/ImagePng.h **** #include <cstdio>
  13:../../Include/ImagePng.h **** #include <cstdint>
  14:../../Include/ImagePng.h **** #include "png.h"
  15:../../Include/ImagePng.h **** 
  16:../../Include/ImagePng.h **** class ImagePng
  17:../../Include/ImagePng.h **** {
  18:../../Include/ImagePng.h **** private:
  19:../../Include/ImagePng.h ****     png_structp m_Png = NULL;
  20:../../Include/ImagePng.h ****     png_infop m_PngInfo = NULL;
  21:../../Include/ImagePng.h ****     FILE* m_Fp = NULL;
  22:../../Include/ImagePng.h ****     png_bytep* m_RowPointers = NULL;
  23:../../Include/ImagePng.h **** 
  24:../../Include/ImagePng.h ****     int m_Width = 0;
  25:../../Include/ImagePng.h ****     int m_Height = 0;
  26:../../Include/ImagePng.h ****     png_byte m_ColorType = 0;
  27:../../Include/ImagePng.h ****     png_byte m_BitDepth = 0;
  28:../../Include/ImagePng.h **** 
  29:../../Include/ImagePng.h ****     void AllocRowPointers(void)
  30:../../Include/ImagePng.h ****     {
  31:../../Include/ImagePng.h ****         if (m_RowPointers != NULL)
  32:../../Include/ImagePng.h ****             throw std::runtime_error("ImagePng::AllocRowPointers - m_RowPointers not NULL");
AARCH64 GAS  obj/Ch15_05.s 			page 13


  33:../../Include/ImagePng.h **** 
  34:../../Include/ImagePng.h ****         m_RowPointers = (png_bytep*)malloc(sizeof(png_bytep) * m_Height);
  35:../../Include/ImagePng.h **** 
  36:../../Include/ImagePng.h ****         for (int i = 0; i < m_Height; i++)
  37:../../Include/ImagePng.h ****             m_RowPointers[i] = (png_byte*)malloc(png_get_rowbytes(m_Png, m_PngInfo));
  38:../../Include/ImagePng.h ****     }
  39:../../Include/ImagePng.h **** 
  40:../../Include/ImagePng.h ****     void FreeRowPointers(bool dtor = false)
 427              		.loc 2 40 10 is_stmt 1 view -0
 428              		.cfi_startproc
 429              		.loc 2 40 10 is_stmt 0 view .LVU126
 430 0000 FD7BBEA9 		stp	x29, x30, [sp, -32]!
 431              		.cfi_def_cfa_offset 32
 432              		.cfi_offset 29, -32
 433              		.cfi_offset 30, -24
 434 0004 FD030091 		mov	x29, sp
 435 0008 F35301A9 		stp	x19, x20, [sp, 16]
 436              		.cfi_offset 19, -16
 437              		.cfi_offset 20, -8
 438              		.loc 2 40 10 view .LVU127
 439 000c F30300AA 		mov	x19, x0
 440 0010 140080D2 		mov	x20, 0
 441              	.LVL20:
 442              	.L27:
 443              	.LBB760:
  41:../../Include/ImagePng.h ****     {
  42:../../Include/ImagePng.h ****         if (m_RowPointers == NULL)
  43:../../Include/ImagePng.h ****         {
  44:../../Include/ImagePng.h ****             if (dtor)
  45:../../Include/ImagePng.h ****                 return;
  46:../../Include/ImagePng.h ****             else
  47:../../Include/ImagePng.h ****                 throw std::runtime_error("ImagePng::FreeRowPointers - m_RowPointers is NULL");
  48:../../Include/ImagePng.h ****         }
  49:../../Include/ImagePng.h **** 
  50:../../Include/ImagePng.h ****         for (int i = 0; i < m_Height; i++)
 444              		.loc 2 50 27 is_stmt 1 view .LVU128
  51:../../Include/ImagePng.h ****             free(m_RowPointers[i]);
 445              		.loc 2 51 13 view .LVU129
  50:../../Include/ImagePng.h ****             free(m_RowPointers[i]);
 446              		.loc 2 50 27 is_stmt 0 view .LVU130
 447 0014 612640B9 		ldr	w1, [x19, 36]
 448              		.loc 2 51 18 view .LVU131
 449 0018 600E40F9 		ldr	x0, [x19, 24]
  50:../../Include/ImagePng.h ****             free(m_RowPointers[i]);
 450              		.loc 2 50 27 view .LVU132
 451 001c 3F00146B 		cmp	w1, w20
 452 0020 AD000054 		ble	.L26
 453              		.loc 2 51 17 view .LVU133
 454 0024 007874F8 		ldr	x0, [x0, x20, lsl 3]
 455 0028 94060091 		add	x20, x20, 1
 456              	.LVL21:
 457              		.loc 2 51 17 view .LVU134
 458 002c 00000094 		bl	free
 459              	.LVL22:
  50:../../Include/ImagePng.h ****             free(m_RowPointers[i]);
 460              		.loc 2 50 9 is_stmt 1 view .LVU135
  50:../../Include/ImagePng.h ****             free(m_RowPointers[i]);
AARCH64 GAS  obj/Ch15_05.s 			page 14


 461              		.loc 2 50 9 is_stmt 0 view .LVU136
 462 0030 F9FFFF17 		b	.L27
 463              	.LVL23:
 464              	.L26:
  50:../../Include/ImagePng.h ****             free(m_RowPointers[i]);
 465              		.loc 2 50 9 view .LVU137
 466              	.LBE760:
  52:../../Include/ImagePng.h **** 
  53:../../Include/ImagePng.h ****         free(m_RowPointers);
 467              		.loc 2 53 9 is_stmt 1 view .LVU138
 468              		.loc 2 53 13 is_stmt 0 view .LVU139
 469 0034 00000094 		bl	free
 470              	.LVL24:
  54:../../Include/ImagePng.h ****         m_RowPointers = NULL;
 471              		.loc 2 54 9 is_stmt 1 view .LVU140
 472              		.loc 2 54 23 is_stmt 0 view .LVU141
 473 0038 7F0E00F9 		str	xzr, [x19, 24]
  55:../../Include/ImagePng.h ****     }
 474              		.loc 2 55 5 view .LVU142
 475 003c F35341A9 		ldp	x19, x20, [sp, 16]
 476              	.LVL25:
 477              		.loc 2 55 5 view .LVU143
 478 0040 FD7BC2A8 		ldp	x29, x30, [sp], 32
 479              		.cfi_restore 30
 480              		.cfi_restore 29
 481              		.cfi_restore 19
 482              		.cfi_restore 20
 483              		.cfi_def_cfa_offset 0
 484 0044 C0035FD6 		ret
 485              		.cfi_endproc
 486              	.LFE2175:
 487              		.size	_ZN8ImagePng15FreeRowPointersEb.part.0, .-_ZN8ImagePng15FreeRowPointersEb.part.0
 488              		.section	.rodata.str1.8,"aMS",@progbits,1
 489              		.align	3
 490              	.LC1:
 491 0000 726200   		.string	"rb"
 492 0003 00000000 		.align	3
 492      00
 493              	.LC2:
 494 0008 496D6167 		.string	"ImagePng::LoadImage - fopen error"
 494      65506E67 
 494      3A3A4C6F 
 494      6164496D 
 494      61676520 
 495 002a 00000000 		.align	3
 495      0000
 496              	.LC3:
 497 0030 312E362E 		.string	"1.6.37"
 497      333700
 498 0037 00       		.align	3
 499              	.LC4:
 500 0038 496D6167 		.string	"ImagePng::LoadImage - png_create_read_struct error"
 500      65506E67 
 500      3A3A4C6F 
 500      6164496D 
 500      61676520 
 501 006b 00000000 		.align	3
AARCH64 GAS  obj/Ch15_05.s 			page 15


 501      00
 502              	.LC5:
 503 0070 496D6167 		.string	"ImagePng::LoadImage - png_create_info_struct error"
 503      65506E67 
 503      3A3A4C6F 
 503      6164496D 
 503      61676520 
 504 00a3 00000000 		.align	3
 504      00
 505              	.LC6:
 506 00a8 496D6167 		.string	"ImagePng::LoadImage - setjmp error"
 506      65506E67 
 506      3A3A4C6F 
 506      6164496D 
 506      61676520 
 507 00cb 00000000 		.align	3
 507      00
 508              	.LC7:
 509 00d0 496D6167 		.string	"ImagePng::LoadImage - pixel_buff size error"
 509      65506E67 
 509      3A3A4C6F 
 509      6164496D 
 509      61676520 
 510 00fc 00000000 		.align	3
 511              	.LC8:
 512 0100 496D6167 		.string	"ImagePng::AllocRowPointers - m_RowPointers not NULL"
 512      65506E67 
 512      3A3A416C 
 512      6C6F6352 
 512      6F77506F 
 513 0134 00000000 		.align	3
 514              	.LC9:
 515 0138 496D6167 		.string	"ImagePng::FreeRowPointers - m_RowPointers is NULL"
 515      65506E67 
 515      3A3A4672 
 515      6565526F 
 515      77506F69 
 516              		.text
 517              		.align	2
 518              		.p2align 4,,11
 519              		.type	_ZN8ImagePng9LoadImageERKNSt7__cxx1112basic_stringIcSt11char_traitsIcESaIcEEEPhiPiS9_.isra.0
 520              	_ZN8ImagePng9LoadImageERKNSt7__cxx1112basic_stringIcSt11char_traitsIcESaIcEEEPhiPiS9_.isra.0:
 521              	.LVL26:
 522              	.LFB2177:
  56:../../Include/ImagePng.h **** 
  57:../../Include/ImagePng.h **** public:
  58:../../Include/ImagePng.h ****     ImagePng(void)
  59:../../Include/ImagePng.h ****     {
  60:../../Include/ImagePng.h ****     }
  61:../../Include/ImagePng.h **** 
  62:../../Include/ImagePng.h ****     ~ImagePng()
  63:../../Include/ImagePng.h ****     {
  64:../../Include/ImagePng.h ****         FreeRowPointers(true);
  65:../../Include/ImagePng.h ****     };
  66:../../Include/ImagePng.h **** 
  67:../../Include/ImagePng.h ****     ImagePng(const ImagePng& im) = delete;
  68:../../Include/ImagePng.h ****     ImagePng(ImagePng&& im) = delete;
AARCH64 GAS  obj/Ch15_05.s 			page 16


  69:../../Include/ImagePng.h ****     ImagePng& operator = (const ImagePng& im) = delete;
  70:../../Include/ImagePng.h ****     ImagePng& operator = (ImagePng&& im) = delete;
  71:../../Include/ImagePng.h **** 
  72:../../Include/ImagePng.h ****     void LoadImage(const std::string& filename, uint8_t* pixel_buff, int pixel_buff_size, int* heig
 523              		.loc 2 72 10 is_stmt 1 view -0
 524              		.cfi_startproc
 525              		.cfi_personality 0x9b,DW.ref.__gxx_personality_v0
 526              		.cfi_lsda 0x1b,.LLSDA2177
  73:../../Include/ImagePng.h ****     {
  74:../../Include/ImagePng.h ****         //
  75:../../Include/ImagePng.h ****         //
  76:../../Include/ImagePng.h ****         //
  77:../../Include/ImagePng.h **** 
  78:../../Include/ImagePng.h ****         if ((m_Fp = fopen(filename.c_str(), "rb")) == NULL)
 527              		.loc 2 78 9 view .LVU145
  72:../../Include/ImagePng.h ****     {
 528              		.loc 2 72 10 is_stmt 0 view .LVU146
 529 0360 FD7BBAA9 		stp	x29, x30, [sp, -96]!
 530              		.cfi_def_cfa_offset 96
 531              		.cfi_offset 29, -96
 532              		.cfi_offset 30, -88
 533 0364 FD030091 		mov	x29, sp
 534 0368 F35301A9 		stp	x19, x20, [sp, 16]
 535              		.cfi_offset 19, -80
 536              		.cfi_offset 20, -72
 537 036c F30300AA 		mov	x19, x0
 538 0370 F55B02A9 		stp	x21, x22, [sp, 32]
 539              		.cfi_offset 21, -64
 540              		.cfi_offset 22, -56
  72:../../Include/ImagePng.h ****     {
 541              		.loc 2 72 10 view .LVU147
 542 0374 E08B03A9 		stp	x0, x2, [sp, 56]
 543              		.loc 2 78 26 view .LVU148
 544 0378 E00301AA 		mov	x0, x1
 545              	.LVL27:
 546              		.loc 2 78 26 view .LVU149
 547 037c 01000090 		adrp	x1, .LC1
 548 0380 21000091 		add	x1, x1, :lo12:.LC1
  72:../../Include/ImagePng.h ****     {
 549              		.loc 2 72 10 view .LVU150
 550 0384 E34F00B9 		str	w3, [sp, 76]
 551 0388 E41705A9 		stp	x4, x5, [sp, 80]
 552              	.LEHB0:
 553              		.loc 2 78 26 view .LVU151
 554 038c 00000094 		bl	fopen
 555              	.LVL28:
 556              		.loc 2 78 19 view .LVU152
 557 0390 600A00F9 		str	x0, [x19, 16]
 558              		.loc 2 78 9 view .LVU153
 559 0394 802000B4 		cbz	x0, .L81
  79:../../Include/ImagePng.h ****             throw std::runtime_error("ImagePng::LoadImage - fopen error");
  80:../../Include/ImagePng.h **** 
  81:../../Include/ImagePng.h ****         m_Png = png_create_read_struct(PNG_LIBPNG_VER_STRING, NULL, NULL, NULL);
 560              		.loc 2 81 9 is_stmt 1 view .LVU154
 561              		.loc 2 81 39 is_stmt 0 view .LVU155
 562 0398 020080D2 		mov	x2, 0
 563 039c 00000090 		adrp	x0, .LC3
AARCH64 GAS  obj/Ch15_05.s 			page 17


 564 03a0 030080D2 		mov	x3, 0
 565 03a4 00000091 		add	x0, x0, :lo12:.LC3
 566 03a8 010080D2 		mov	x1, 0
 567 03ac 00000094 		bl	png_create_read_struct
 568              	.LVL29:
 569              		.loc 2 81 15 view .LVU156
 570 03b0 E21F40F9 		ldr	x2, [sp, 56]
 571 03b4 400000F9 		str	x0, [x2]
  82:../../Include/ImagePng.h **** 
  83:../../Include/ImagePng.h ****         if (!m_Png)
 572              		.loc 2 83 9 is_stmt 1 view .LVU157
 573 03b8 801D00B4 		cbz	x0, .L82
  84:../../Include/ImagePng.h ****             throw std::runtime_error("ImagePng::LoadImage - png_create_read_struct error");
  85:../../Include/ImagePng.h **** 
  86:../../Include/ImagePng.h ****         m_PngInfo = png_create_info_struct(m_Png);
 574              		.loc 2 86 9 view .LVU158
 575              		.loc 2 86 43 is_stmt 0 view .LVU159
 576 03bc 00000094 		bl	png_create_info_struct
 577              	.LVL30:
 578              		.loc 2 86 19 view .LVU160
 579 03c0 E11F40F9 		ldr	x1, [sp, 56]
 580 03c4 200400F9 		str	x0, [x1, 8]
  87:../../Include/ImagePng.h **** 
  88:../../Include/ImagePng.h ****         if (!m_PngInfo)
 581              		.loc 2 88 9 is_stmt 1 view .LVU161
 582 03c8 201C00B4 		cbz	x0, .L83
  89:../../Include/ImagePng.h ****             throw std::runtime_error("ImagePng::LoadImage - png_create_info_struct error");
  90:../../Include/ImagePng.h **** 
  91:../../Include/ImagePng.h ****         if (setjmp(png_jmpbuf(m_Png)))
 583              		.loc 2 91 9 view .LVU162
 584 03cc E00301AA 		mov	x0, x1
 585              		.loc 2 91 41 is_stmt 0 view .LVU163
 586 03d0 01000090 		adrp	x1, :got:longjmp
 587 03d4 022780D2 		mov	x2, 312
 588 03d8 210040F9 		ldr	x1, [x1, #:got_lo12:longjmp]
 589 03dc 000040F9 		ldr	x0, [x0]
 590 03e0 00000094 		bl	png_set_longjmp_fn
 591              	.LVL31:
 592              		.loc 2 91 20 view .LVU164
 593 03e4 00000094 		bl	_setjmp
 594              	.LVL32:
 595 03e8 F303002A 		mov	w19, w0
 596              	.LVL33:
 597              		.loc 2 91 9 view .LVU165
 598 03ec A01E0035 		cbnz	w0, .L84
  92:../../Include/ImagePng.h ****             throw std::runtime_error("ImagePng::LoadImage - setjmp error");
  93:../../Include/ImagePng.h **** 
  94:../../Include/ImagePng.h ****         png_init_io(m_Png, m_Fp);
 599              		.loc 2 94 9 is_stmt 1 view .LVU166
 600              		.loc 2 94 20 is_stmt 0 view .LVU167
 601 03f0 F41F40F9 		ldr	x20, [sp, 56]
 602 03f4 800240F9 		ldr	x0, [x20]
 603 03f8 810A40F9 		ldr	x1, [x20, 16]
 604 03fc 00000094 		bl	png_init_io
 605              	.LVL34:
  95:../../Include/ImagePng.h ****         png_read_info(m_Png, m_PngInfo);
 606              		.loc 2 95 9 is_stmt 1 view .LVU168
AARCH64 GAS  obj/Ch15_05.s 			page 18


 607              		.loc 2 95 22 is_stmt 0 view .LVU169
 608 0400 800640A9 		ldp	x0, x1, [x20]
 609 0404 00000094 		bl	png_read_info
 610              	.LVL35:
  96:../../Include/ImagePng.h **** 
  97:../../Include/ImagePng.h ****         //
  98:../../Include/ImagePng.h ****         //
  99:../../Include/ImagePng.h ****         //
 100:../../Include/ImagePng.h **** 
 101:../../Include/ImagePng.h ****         m_Width = png_get_image_width(m_Png, m_PngInfo);
 611              		.loc 2 101 9 is_stmt 1 view .LVU170
 612              		.loc 2 101 38 is_stmt 0 view .LVU171
 613 0408 800640A9 		ldp	x0, x1, [x20]
 614 040c 00000094 		bl	png_get_image_width
 615              	.LVL36:
 616 0410 E103002A 		mov	w1, w0
 617              		.loc 2 101 17 view .LVU172
 618 0414 812200B9 		str	w1, [x20, 32]
 102:../../Include/ImagePng.h ****         m_Height = png_get_image_height(m_Png, m_PngInfo);
 619              		.loc 2 102 9 is_stmt 1 view .LVU173
 620              		.loc 2 102 40 is_stmt 0 view .LVU174
 621 0418 800240F9 		ldr	x0, [x20]
 622 041c 810640F9 		ldr	x1, [x20, 8]
 623 0420 00000094 		bl	png_get_image_height
 624              	.LVL37:
 625 0424 E103002A 		mov	w1, w0
 626              		.loc 2 102 18 view .LVU175
 627 0428 812600B9 		str	w1, [x20, 36]
 103:../../Include/ImagePng.h ****         m_ColorType = png_get_color_type(m_Png, m_PngInfo);
 628              		.loc 2 103 9 is_stmt 1 view .LVU176
 629              		.loc 2 103 41 is_stmt 0 view .LVU177
 630 042c 800240F9 		ldr	x0, [x20]
 631 0430 810640F9 		ldr	x1, [x20, 8]
 632 0434 00000094 		bl	png_get_color_type
 633              	.LVL38:
 634              		.loc 2 103 21 view .LVU178
 635 0438 80A20039 		strb	w0, [x20, 40]
 104:../../Include/ImagePng.h ****         m_BitDepth = png_get_bit_depth(m_Png, m_PngInfo);
 636              		.loc 2 104 9 is_stmt 1 view .LVU179
 637              		.loc 2 104 39 is_stmt 0 view .LVU180
 638 043c 800640A9 		ldp	x0, x1, [x20]
 639 0440 00000094 		bl	png_get_bit_depth
 640              	.LVL39:
 641 0444 011C0012 		and	w1, w0, 255
 642              		.loc 2 104 20 view .LVU181
 643 0448 80A60039 		strb	w0, [x20, 41]
 105:../../Include/ImagePng.h ****         *height = m_Height;
 644              		.loc 2 105 9 is_stmt 1 view .LVU182
 645              		.loc 2 105 17 is_stmt 0 view .LVU183
 646 044c E02B40F9 		ldr	x0, [sp, 80]
 647              		.loc 2 105 19 view .LVU184
 648 0450 822640B9 		ldr	w2, [x20, 36]
 106:../../Include/ImagePng.h ****         *width = m_Width;
 649              		.loc 2 106 16 view .LVU185
 650 0454 E32F40F9 		ldr	x3, [sp, 88]
 105:../../Include/ImagePng.h ****         *height = m_Height;
 651              		.loc 2 105 17 view .LVU186
AARCH64 GAS  obj/Ch15_05.s 			page 19


 652 0458 020000B9 		str	w2, [x0]
 653              		.loc 2 106 9 is_stmt 1 view .LVU187
 107:../../Include/ImagePng.h **** 
 108:../../Include/ImagePng.h ****         //
 109:../../Include/ImagePng.h ****         // Convert image to RGBA format (8-bits per component) 
 110:../../Include/ImagePng.h ****         //
 111:../../Include/ImagePng.h **** 
 112:../../Include/ImagePng.h ****         if (m_BitDepth == 16)
 113:../../Include/ImagePng.h ****             png_set_strip_16(m_Png);
 654              		.loc 2 113 29 is_stmt 0 view .LVU188
 655 045c 800240F9 		ldr	x0, [x20]
 106:../../Include/ImagePng.h ****         *width = m_Width;
 656              		.loc 2 106 18 view .LVU189
 657 0460 822240B9 		ldr	w2, [x20, 32]
 106:../../Include/ImagePng.h ****         *width = m_Width;
 658              		.loc 2 106 16 view .LVU190
 659 0464 620000B9 		str	w2, [x3]
 112:../../Include/ImagePng.h ****             png_set_strip_16(m_Png);
 660              		.loc 2 112 9 is_stmt 1 view .LVU191
 661 0468 3F400071 		cmp	w1, 16
 662 046c 00130054 		beq	.L85
 663              	.L35:
 114:../../Include/ImagePng.h **** 
 115:../../Include/ImagePng.h ****         if (m_ColorType == PNG_COLOR_TYPE_PALETTE)
 664              		.loc 2 115 9 view .LVU192
 665              		.loc 2 115 13 is_stmt 0 view .LVU193
 666 0470 E11F40F9 		ldr	x1, [sp, 56]
 667 0474 21A04039 		ldrb	w1, [x1, 40]
 668              		.loc 2 115 9 view .LVU194
 669 0478 3F0C0071 		cmp	w1, 3
 670 047c E0110054 		beq	.L86
 671              	.L36:
 116:../../Include/ImagePng.h ****             png_set_palette_to_rgb(m_Png);
 117:../../Include/ImagePng.h **** 
 118:../../Include/ImagePng.h ****         if (m_ColorType == PNG_COLOR_TYPE_GRAY_ALPHA && m_BitDepth < 8)
 672              		.loc 2 118 9 is_stmt 1 view .LVU195
 673 0480 3F100071 		cmp	w1, 4
 674 0484 A1000054 		bne	.L37
 675              		.loc 2 118 53 is_stmt 0 view .LVU196
 676 0488 E11F40F9 		ldr	x1, [sp, 56]
 677 048c 21A44039 		ldrb	w1, [x1, 41]
 678 0490 3F1C0071 		cmp	w1, 7
 679 0494 49120054 		bls	.L87
 680              	.L37:
 119:../../Include/ImagePng.h ****             png_set_expand_gray_1_2_4_to_8(m_Png);
 120:../../Include/ImagePng.h **** 
 121:../../Include/ImagePng.h ****         if (png_get_valid(m_Png, m_PngInfo, PNG_INFO_tRNS))
 681              		.loc 2 121 9 is_stmt 1 view .LVU197
 682              		.loc 2 121 26 is_stmt 0 view .LVU198
 683 0498 F41F40F9 		ldr	x20, [sp, 56]
 684 049c 02028052 		mov	w2, 16
 685 04a0 810640F9 		ldr	x1, [x20, 8]
 686 04a4 00000094 		bl	png_get_valid
 687              	.LVL40:
 688 04a8 E103002A 		mov	w1, w0
 122:../../Include/ImagePng.h ****             png_set_tRNS_to_alpha(m_Png);
 689              		.loc 2 122 34 view .LVU199
AARCH64 GAS  obj/Ch15_05.s 			page 20


 690 04ac 800240F9 		ldr	x0, [x20]
 121:../../Include/ImagePng.h ****             png_set_tRNS_to_alpha(m_Png);
 691              		.loc 2 121 9 view .LVU200
 692 04b0 C10F0035 		cbnz	w1, .L88
 693              	.L38:
 123:../../Include/ImagePng.h **** 
 124:../../Include/ImagePng.h ****         if (m_ColorType == PNG_COLOR_TYPE_GRAY || m_ColorType == PNG_COLOR_TYPE_RGB || m_ColorType 
 694              		.loc 2 124 9 is_stmt 1 view .LVU201
 695              		.loc 2 124 13 is_stmt 0 view .LVU202
 696 04b4 F41F40F9 		ldr	x20, [sp, 56]
 697 04b8 81A24039 		ldrb	w1, [x20, 40]
 698              		.loc 2 124 47 view .LVU203
 699 04bc 22080051 		sub	w2, w1, #2
 700              		.loc 2 124 84 view .LVU204
 701 04c0 3F000071 		cmp	w1, 0
 702 04c4 421C0012 		and	w2, w2, 255
 703 04c8 4018417A 		ccmp	w2, 1, 0, ne
 704 04cc C8000054 		bhi	.L39
 125:../../Include/ImagePng.h ****             png_set_filler(m_Png, 0xff, PNG_FILLER_AFTER);
 705              		.loc 2 125 13 is_stmt 1 view .LVU205
 706              		.loc 2 125 27 is_stmt 0 view .LVU206
 707 04d0 E11F8052 		mov	w1, 255
 708 04d4 22008052 		mov	w2, 1
 709 04d8 00000094 		bl	png_set_filler
 710              	.LVL41:
 126:../../Include/ImagePng.h **** 
 127:../../Include/ImagePng.h ****         if (m_ColorType == PNG_COLOR_TYPE_GRAY || m_ColorType == PNG_COLOR_TYPE_GRAY_ALPHA)
 711              		.loc 2 127 13 view .LVU207
 712 04dc 81A24039 		ldrb	w1, [x20, 40]
 128:../../Include/ImagePng.h ****             png_set_gray_to_rgb(m_Png);
 713              		.loc 2 128 32 view .LVU208
 714 04e0 800240F9 		ldr	x0, [x20]
 715              	.L39:
 127:../../Include/ImagePng.h ****             png_set_gray_to_rgb(m_Png);
 716              		.loc 2 127 9 is_stmt 1 view .LVU209
 717 04e4 621F8052 		mov	w2, 251
 718 04e8 3F00026A 		tst	w1, w2
 719 04ec 600D0054 		beq	.L89
 720              	.L40:
 129:../../Include/ImagePng.h **** 
 130:../../Include/ImagePng.h ****         png_read_update_info(m_Png, m_PngInfo);
 721              		.loc 2 130 9 view .LVU210
 722              		.loc 2 130 29 is_stmt 0 view .LVU211
 723 04f0 F41F40F9 		ldr	x20, [sp, 56]
 724 04f4 810640F9 		ldr	x1, [x20, 8]
 725 04f8 00000094 		bl	png_read_update_info
 726              	.LVL42:
 131:../../Include/ImagePng.h **** 
 132:../../Include/ImagePng.h ****         //
 133:../../Include/ImagePng.h ****         // Make sure caller's pixel buffer is large enough
 134:../../Include/ImagePng.h ****         //
 135:../../Include/ImagePng.h **** 
 136:../../Include/ImagePng.h ****         int bytes_per_pixel = 4;
 727              		.loc 2 136 9 is_stmt 1 view .LVU212
 137:../../Include/ImagePng.h ****         
 138:../../Include/ImagePng.h ****         if (m_Height * m_Width * bytes_per_pixel >= pixel_buff_size)
 728              		.loc 2 138 9 view .LVU213
AARCH64 GAS  obj/Ch15_05.s 			page 21


 729              		.loc 2 138 13 is_stmt 0 view .LVU214
 730 04fc 80524429 		ldp	w0, w20, [x20, 32]
 731              		.loc 2 138 9 view .LVU215
 732 0500 E14F40B9 		ldr	w1, [sp, 76]
 733              		.loc 2 138 22 view .LVU216
 734 0504 807E001B 		mul	w0, w20, w0
 735              		.loc 2 138 9 view .LVU217
 736 0508 3F08006B 		cmp	w1, w0, lsl 2
 737 050c 8D100054 		ble	.L90
 139:../../Include/ImagePng.h ****             throw std::runtime_error("ImagePng::LoadImage - pixel_buff size error");
 140:../../Include/ImagePng.h **** 
 141:../../Include/ImagePng.h ****         //
 142:../../Include/ImagePng.h ****         // Read image
 143:../../Include/ImagePng.h ****         //
 144:../../Include/ImagePng.h **** 
 145:../../Include/ImagePng.h ****         AllocRowPointers();
 738              		.loc 2 145 9 is_stmt 1 view .LVU218
 739              	.LVL43:
 740              	.LBB777:
 741              	.LBI777:
  29:../../Include/ImagePng.h ****     {
 742              		.loc 2 29 10 view .LVU219
 743              	.LBB778:
  31:../../Include/ImagePng.h ****             throw std::runtime_error("ImagePng::AllocRowPointers - m_RowPointers not NULL");
 744              		.loc 2 31 9 view .LVU220
 745 0510 E01F40F9 		ldr	x0, [sp, 56]
 746 0514 000C40F9 		ldr	x0, [x0, 24]
 747 0518 601600B5 		cbnz	x0, .L91
  34:../../Include/ImagePng.h **** 
 748              		.loc 2 34 9 view .LVU221
  34:../../Include/ImagePng.h **** 
 749              		.loc 2 34 43 is_stmt 0 view .LVU222
 750 051c 807E7D93 		sbfiz	x0, x20, 3, 32
 751 0520 00000094 		bl	malloc
 752              	.LVL44:
 753 0524 F50300AA 		mov	x21, x0
  34:../../Include/ImagePng.h **** 
 754              		.loc 2 34 23 view .LVU223
 755 0528 E01F40F9 		ldr	x0, [sp, 56]
 756 052c 150C00F9 		str	x21, [x0, 24]
  36:../../Include/ImagePng.h ****             m_RowPointers[i] = (png_byte*)malloc(png_get_rowbytes(m_Png, m_PngInfo));
 757              		.loc 2 36 9 is_stmt 1 view .LVU224
 758              	.LVL45:
 759              	.LBB779:
  36:../../Include/ImagePng.h ****             m_RowPointers[i] = (png_byte*)malloc(png_get_rowbytes(m_Png, m_PngInfo));
 760              		.loc 2 36 27 view .LVU225
 761 0530 9F020071 		cmp	w20, 0
 762 0534 AD010054 		ble	.L43
 763 0538 140080D2 		mov	x20, 0
 764              	.LVL46:
 765 053c 1F2003D5 		.p2align 3,,7
 766              	.L44:
  37:../../Include/ImagePng.h ****     }
 767              		.loc 2 37 13 view .LVU226
  37:../../Include/ImagePng.h ****     }
 768              		.loc 2 37 49 is_stmt 0 view .LVU227
 769 0540 F61F40F9 		ldr	x22, [sp, 56]
AARCH64 GAS  obj/Ch15_05.s 			page 22


 770 0544 C00640A9 		ldp	x0, x1, [x22]
 771 0548 00000094 		bl	png_get_rowbytes
 772              	.LVL47:
  37:../../Include/ImagePng.h ****     }
 773              		.loc 2 37 13 view .LVU228
 774 054c D50E40F9 		ldr	x21, [x22, 24]
  37:../../Include/ImagePng.h ****     }
 775              		.loc 2 37 49 view .LVU229
 776 0550 00000094 		bl	malloc
 777              	.LVL48:
  36:../../Include/ImagePng.h ****             m_RowPointers[i] = (png_byte*)malloc(png_get_rowbytes(m_Png, m_PngInfo));
 778              		.loc 2 36 27 view .LVU230
 779 0554 C12640B9 		ldr	w1, [x22, 36]
  37:../../Include/ImagePng.h ****     }
 780              		.loc 2 37 30 view .LVU231
 781 0558 A07A34F8 		str	x0, [x21, x20, lsl 3]
  36:../../Include/ImagePng.h ****             m_RowPointers[i] = (png_byte*)malloc(png_get_rowbytes(m_Png, m_PngInfo));
 782              		.loc 2 36 9 is_stmt 1 view .LVU232
 783              	.LVL49:
  36:../../Include/ImagePng.h ****             m_RowPointers[i] = (png_byte*)malloc(png_get_rowbytes(m_Png, m_PngInfo));
 784              		.loc 2 36 27 view .LVU233
 785 055c 94060091 		add	x20, x20, 1
 786              	.LVL50:
  36:../../Include/ImagePng.h ****             m_RowPointers[i] = (png_byte*)malloc(png_get_rowbytes(m_Png, m_PngInfo));
 787              		.loc 2 36 27 is_stmt 0 view .LVU234
 788 0560 3F00146B 		cmp	w1, w20
 789 0564 ECFEFF54 		bgt	.L44
 790              	.L43:
 791              	.LVL51:
  36:../../Include/ImagePng.h ****             m_RowPointers[i] = (png_byte*)malloc(png_get_rowbytes(m_Png, m_PngInfo));
 792              		.loc 2 36 27 view .LVU235
 793              	.LBE779:
 794              	.LBE778:
 795              	.LBE777:
 146:../../Include/ImagePng.h ****         png_read_image(m_Png, m_RowPointers);
 796              		.loc 2 146 9 is_stmt 1 view .LVU236
 797              		.loc 2 146 23 is_stmt 0 view .LVU237
 798 0568 F41F40F9 		ldr	x20, [sp, 56]
 799 056c E10315AA 		mov	x1, x21
 800 0570 800240F9 		ldr	x0, [x20]
 801 0574 00000094 		bl	png_read_image
 802              	.LVL52:
 803              	.LBB781:
 147:../../Include/ImagePng.h **** 
 148:../../Include/ImagePng.h ****         //
 149:../../Include/ImagePng.h ****         // Copy data to caller's pixel buffer
 150:../../Include/ImagePng.h ****         //
 151:../../Include/ImagePng.h **** 
 152:../../Include/ImagePng.h ****         int k = 0;
 153:../../Include/ImagePng.h ****         for (int i = 0; i < m_Height; i++)
 804              		.loc 2 153 27 is_stmt 1 view .LVU238
 805              		.loc 2 153 29 is_stmt 0 view .LVU239
 806 0578 812640B9 		ldr	w1, [x20, 36]
 807              	.LBE781:
 808              	.LBB796:
 809              	.LBB797:
  42:../../Include/ImagePng.h ****         {
AARCH64 GAS  obj/Ch15_05.s 			page 23


 810              		.loc 2 42 13 view .LVU240
 811 057c 800E40F9 		ldr	x0, [x20, 24]
 812              	.LBE797:
 813              	.LBE796:
 814              	.LBB814:
 815              		.loc 2 153 27 view .LVU241
 816 0580 3F000071 		cmp	w1, 0
 817 0584 4D0B0054 		ble	.L46
 818              	.LBB782:
 819              	.LBB783:
 154:../../Include/ImagePng.h ****         {
 155:../../Include/ImagePng.h ****             png_bytep row_ptr = m_RowPointers[i];
 156:../../Include/ImagePng.h **** 
 157:../../Include/ImagePng.h ****             for (int j = 0; j < m_Width; j++)
 820              		.loc 2 157 33 view .LVU242
 821 0588 090080D2 		mov	x9, 0
 822 058c 852240B9 		ldr	w5, [x20, 32]
 823              	.LBE783:
 824              	.LBE782:
 825              	.LBE814:
 152:../../Include/ImagePng.h ****         for (int i = 0; i < m_Height; i++)
 826              		.loc 2 152 13 view .LVU243
 827 0590 E303132A 		mov	w3, w19
 828              	.LBB815:
 153:../../Include/ImagePng.h ****         {
 829              		.loc 2 153 18 view .LVU244
 830 0594 E803132A 		mov	w8, w19
 831              	.LVL53:
 832              	.LBB792:
 155:../../Include/ImagePng.h **** 
 833              		.loc 2 155 13 is_stmt 1 view .LVU245
 155:../../Include/ImagePng.h **** 
 834              		.loc 2 155 23 is_stmt 0 view .LVU246
 835 0598 066869F8 		ldr	x6, [x0, x9]
 836              	.LVL54:
 837              		.loc 2 157 13 is_stmt 1 view .LVU247
 838              	.LBB788:
 839              		.loc 2 157 31 view .LVU248
 840 059c BF000071 		cmp	w5, 0
 841 05a0 4D040054 		ble	.L47
 842              	.LVL55:
 843 05a4 1F2003D5 		.p2align 3,,7
 844              	.L92:
 845              		.loc 2 157 31 is_stmt 0 view .LVU249
 846 05a8 E02340F9 		ldr	x0, [sp, 64]
 847 05ac 67100011 		add	w7, w3, 4
 848 05b0 E10306AA 		mov	x1, x6
 849              		.loc 2 157 22 view .LVU250
 850 05b4 E403132A 		mov	w4, w19
 851 05b8 02C0238B 		add	x2, x0, x3, sxtw
 852              	.LVL56:
 853 05bc 1F2003D5 		.p2align 3,,7
 854              	.L48:
 855              	.LBB784:
 158:../../Include/ImagePng.h ****             {
 159:../../Include/ImagePng.h ****                 png_bytep pixel_ptr = &row_ptr[j * 4];
 856              		.loc 2 159 17 is_stmt 1 view .LVU251
AARCH64 GAS  obj/Ch15_05.s 			page 24


 160:../../Include/ImagePng.h **** 
 161:../../Include/ImagePng.h ****                 pixel_buff[k + 0] = pixel_ptr[0];
 857              		.loc 2 161 17 view .LVU252
 858              		.loc 2 161 48 is_stmt 0 view .LVU253
 859 05c0 20004039 		ldrb	w0, [x1]
 860 05c4 2300064B 		sub	w3, w1, w6
 861              		.loc 2 161 35 view .LVU254
 862 05c8 40000039 		strb	w0, [x2]
 162:../../Include/ImagePng.h ****                 pixel_buff[k + 1] = pixel_ptr[1];
 863              		.loc 2 162 17 is_stmt 1 view .LVU255
 864              	.LBE784:
 157:../../Include/ImagePng.h ****             {
 865              		.loc 2 157 13 is_stmt 0 view .LVU256
 866 05cc 84040011 		add	w4, w4, 1
 867              	.LVL57:
 157:../../Include/ImagePng.h ****             {
 868              		.loc 2 157 13 view .LVU257
 869 05d0 E300030B 		add	w3, w7, w3
 157:../../Include/ImagePng.h ****             {
 870              		.loc 2 157 31 view .LVU258
 871 05d4 21100091 		add	x1, x1, 4
 872              	.LVL58:
 873              	.LBB785:
 874              		.loc 2 162 35 view .LVU259
 875 05d8 20D05F38 		ldrb	w0, [x1, -3]
 876              	.LBE785:
 157:../../Include/ImagePng.h ****             {
 877              		.loc 2 157 31 view .LVU260
 878 05dc 42100091 		add	x2, x2, 4
 879              	.LBB786:
 880              		.loc 2 162 35 view .LVU261
 881 05e0 40D01F38 		strb	w0, [x2, -3]
 163:../../Include/ImagePng.h ****                 pixel_buff[k + 2] = pixel_ptr[2];
 882              		.loc 2 163 17 is_stmt 1 view .LVU262
 883              	.LBE786:
 157:../../Include/ImagePng.h ****             {
 884              		.loc 2 157 33 is_stmt 0 view .LVU263
 885 05e4 E01F40F9 		ldr	x0, [sp, 56]
 886              	.LBB787:
 887              		.loc 2 163 35 view .LVU264
 888 05e8 25E05F38 		ldrb	w5, [x1, -2]
 889 05ec 45E01F38 		strb	w5, [x2, -2]
 164:../../Include/ImagePng.h ****                 pixel_buff[k + 3] = pixel_ptr[3];
 890              		.loc 2 164 17 is_stmt 1 view .LVU265
 891              		.loc 2 164 35 is_stmt 0 view .LVU266
 892 05f0 25F05F38 		ldrb	w5, [x1, -1]
 893 05f4 45F01F38 		strb	w5, [x2, -1]
 165:../../Include/ImagePng.h ****                 k += 4;
 894              		.loc 2 165 17 is_stmt 1 view .LVU267
 895              	.LVL59:
 896              		.loc 2 165 17 is_stmt 0 view .LVU268
 897              	.LBE787:
 157:../../Include/ImagePng.h ****             {
 898              		.loc 2 157 13 is_stmt 1 view .LVU269
 157:../../Include/ImagePng.h ****             {
 899              		.loc 2 157 31 view .LVU270
 157:../../Include/ImagePng.h ****             {
AARCH64 GAS  obj/Ch15_05.s 			page 25


 900              		.loc 2 157 33 is_stmt 0 view .LVU271
 901 05f8 052040B9 		ldr	w5, [x0, 32]
 157:../../Include/ImagePng.h ****             {
 902              		.loc 2 157 31 view .LVU272
 903 05fc BF00046B 		cmp	w5, w4
 904 0600 0CFEFF54 		bgt	.L48
 905              	.LBE788:
 906              	.LBE792:
 153:../../Include/ImagePng.h ****         {
 907              		.loc 2 153 29 view .LVU273
 908 0604 012440B9 		ldr	w1, [x0, 36]
 909              	.LVL60:
 153:../../Include/ImagePng.h ****         {
 910              		.loc 2 153 9 view .LVU274
 911 0608 08050011 		add	w8, w8, 1
 912              	.LVL61:
 153:../../Include/ImagePng.h ****         {
 913              		.loc 2 153 9 view .LVU275
 914              	.LBE815:
 915              	.LBB816:
 916              	.LBB807:
  42:../../Include/ImagePng.h ****         {
 917              		.loc 2 42 13 view .LVU276
 918 060c 000C40F9 		ldr	x0, [x0, 24]
 919              	.LBE807:
 920              	.LBE816:
 921              	.LBB817:
 153:../../Include/ImagePng.h ****         {
 922              		.loc 2 153 9 is_stmt 1 view .LVU277
 923              	.LVL62:
 153:../../Include/ImagePng.h ****         {
 924              		.loc 2 153 27 view .LVU278
 925 0610 1F01016B 		cmp	w8, w1
 926 0614 CA070054 		bge	.L49
 927 0618 29210091 		add	x9, x9, 8
 928              	.LBB793:
 155:../../Include/ImagePng.h **** 
 929              		.loc 2 155 13 view .LVU279
 930              	.LVL63:
 155:../../Include/ImagePng.h **** 
 931              		.loc 2 155 23 is_stmt 0 view .LVU280
 932 061c 066869F8 		ldr	x6, [x0, x9]
 157:../../Include/ImagePng.h ****             {
 933              		.loc 2 157 13 is_stmt 1 view .LVU281
 934              	.LVL64:
 935              	.LBB789:
 157:../../Include/ImagePng.h ****             {
 936              		.loc 2 157 31 view .LVU282
 937 0620 BF000071 		cmp	w5, 0
 938 0624 2CFCFF54 		bgt	.L92
 939              	.LVL65:
 940              	.L47:
 157:../../Include/ImagePng.h ****             {
 941              		.loc 2 157 31 is_stmt 0 view .LVU283
 942              	.LBE789:
 943              	.LBE793:
 153:../../Include/ImagePng.h ****         {
AARCH64 GAS  obj/Ch15_05.s 			page 26


 944              		.loc 2 153 9 is_stmt 1 view .LVU284
 153:../../Include/ImagePng.h ****         {
 945              		.loc 2 153 27 view .LVU285
 153:../../Include/ImagePng.h ****         {
 946              		.loc 2 153 9 is_stmt 0 view .LVU286
 947 0628 08050011 		add	w8, w8, 1
 948              	.LVL66:
 153:../../Include/ImagePng.h ****         {
 949              		.loc 2 153 27 view .LVU287
 950 062c 1F01016B 		cmp	w8, w1
 951 0630 EA060054 		bge	.L49
 952              	.LVL67:
 953              	.LBB794:
 155:../../Include/ImagePng.h **** 
 954              		.loc 2 155 13 is_stmt 1 view .LVU288
 157:../../Include/ImagePng.h ****             {
 955              		.loc 2 157 13 view .LVU289
 956              	.LBB790:
 157:../../Include/ImagePng.h ****             {
 957              		.loc 2 157 31 view .LVU290
 958              	.LBE790:
 959              	.LBE794:
 153:../../Include/ImagePng.h ****         {
 960              		.loc 2 153 9 view .LVU291
 153:../../Include/ImagePng.h ****         {
 961              		.loc 2 153 27 view .LVU292
 962              	.LBE817:
 166:../../Include/ImagePng.h ****             }
 167:../../Include/ImagePng.h ****         }
 168:../../Include/ImagePng.h **** 
 169:../../Include/ImagePng.h ****         //
 170:../../Include/ImagePng.h ****         // Clean up
 171:../../Include/ImagePng.h ****         //
 172:../../Include/ImagePng.h **** 
 173:../../Include/ImagePng.h ****         FreeRowPointers();
 963              		.loc 2 173 9 view .LVU293
 964              	.LBB818:
 965              	.LBI796:
  40:../../Include/ImagePng.h ****     {
 966              		.loc 2 40 10 view .LVU294
 967              	.LBB808:
  42:../../Include/ImagePng.h ****         {
 968              		.loc 2 42 9 view .LVU295
 969 0634 E00500B4 		cbz	x0, .L63
 970              	.LVL68:
 971              	.L64:
  42:../../Include/ImagePng.h ****         {
 972              		.loc 2 42 9 is_stmt 0 view .LVU296
 973              	.LBE808:
 974              	.LBE818:
 975              	.LBB819:
 976              	.LBB795:
 977              	.LBB791:
 157:../../Include/ImagePng.h ****             {
 978              		.loc 2 157 22 view .LVU297
 979 0638 130080D2 		mov	x19, 0
 980 063c 1F2003D5 		.p2align 3,,7
AARCH64 GAS  obj/Ch15_05.s 			page 27


 981              	.L55:
 982              	.LVL69:
 157:../../Include/ImagePng.h ****             {
 983              		.loc 2 157 22 view .LVU298
 984              	.LBE791:
 985              	.LBE795:
 986              	.LBE819:
 987              	.LBB820:
 988              	.LBB809:
 989              	.LBB798:
 990              	.LBB799:
 991              	.LBB800:
  51:../../Include/ImagePng.h **** 
 992              		.loc 2 51 13 is_stmt 1 view .LVU299
  51:../../Include/ImagePng.h **** 
 993              		.loc 2 51 17 is_stmt 0 view .LVU300
 994 0640 007873F8 		ldr	x0, [x0, x19, lsl 3]
  50:../../Include/ImagePng.h ****             free(m_RowPointers[i]);
 995              		.loc 2 50 27 view .LVU301
 996 0644 73060091 		add	x19, x19, 1
 997              	.LVL70:
  51:../../Include/ImagePng.h **** 
 998              		.loc 2 51 17 view .LVU302
 999 0648 00000094 		bl	free
 1000              	.LVL71:
  50:../../Include/ImagePng.h ****             free(m_RowPointers[i]);
 1001              		.loc 2 50 9 is_stmt 1 view .LVU303
  50:../../Include/ImagePng.h ****             free(m_RowPointers[i]);
 1002              		.loc 2 50 27 view .LVU304
 1003 064c E01F40F9 		ldr	x0, [sp, 56]
 1004 0650 002440B9 		ldr	w0, [x0, 36]
 1005 0654 1F00136B 		cmp	w0, w19
 1006              	.LBE800:
  53:../../Include/ImagePng.h ****         m_RowPointers = NULL;
 1007              		.loc 2 53 14 is_stmt 0 view .LVU305
 1008 0658 E01F40F9 		ldr	x0, [sp, 56]
 1009 065c 000C40F9 		ldr	x0, [x0, 24]
 1010              	.LBB801:
  50:../../Include/ImagePng.h ****             free(m_RowPointers[i]);
 1011              		.loc 2 50 27 view .LVU306
 1012 0660 0CFFFF54 		bgt	.L55
 1013              	.L53:
 1014              	.LBE801:
  53:../../Include/ImagePng.h ****         m_RowPointers = NULL;
 1015              		.loc 2 53 9 is_stmt 1 view .LVU307
  53:../../Include/ImagePng.h ****         m_RowPointers = NULL;
 1016              		.loc 2 53 13 is_stmt 0 view .LVU308
 1017 0664 00000094 		bl	free
 1018              	.LVL72:
  54:../../Include/ImagePng.h ****     }
 1019              		.loc 2 54 9 is_stmt 1 view .LVU309
 1020              	.LBE799:
 1021              	.LBE798:
 1022              	.LBE809:
 1023              	.LBE820:
 174:../../Include/ImagePng.h **** 
 175:../../Include/ImagePng.h ****         fclose(m_Fp);
AARCH64 GAS  obj/Ch15_05.s 			page 28


 1024              		.loc 2 175 15 is_stmt 0 view .LVU310
 1025 0668 F31F40F9 		ldr	x19, [sp, 56]
 1026 066c 600A40F9 		ldr	x0, [x19, 16]
 1027              	.LBB821:
 1028              	.LBB810:
 1029              	.LBB805:
 1030              	.LBB803:
  54:../../Include/ImagePng.h ****     }
 1031              		.loc 2 54 23 view .LVU311
 1032 0670 7F0E00F9 		str	xzr, [x19, 24]
 1033              	.LVL73:
  54:../../Include/ImagePng.h ****     }
 1034              		.loc 2 54 23 view .LVU312
 1035              	.LBE803:
 1036              	.LBE805:
 1037              	.LBE810:
 1038              	.LBE821:
 1039              		.loc 2 175 9 is_stmt 1 view .LVU313
 1040              		.loc 2 175 15 is_stmt 0 view .LVU314
 1041 0674 00000094 		bl	fclose
 1042              	.LVL74:
 176:../../Include/ImagePng.h ****         png_destroy_read_struct(&m_Png, &m_PngInfo, NULL);
 1043              		.loc 2 176 9 is_stmt 1 view .LVU315
 1044              		.loc 2 176 32 is_stmt 0 view .LVU316
 1045 0678 61220091 		add	x1, x19, 8
 1046 067c E00313AA 		mov	x0, x19
 1047 0680 020080D2 		mov	x2, 0
 1048 0684 00000094 		bl	png_destroy_read_struct
 1049              	.LVL75:
 177:../../Include/ImagePng.h ****     }
 1050              		.loc 2 177 5 view .LVU317
 1051 0688 F35341A9 		ldp	x19, x20, [sp, 16]
 1052 068c F55B42A9 		ldp	x21, x22, [sp, 32]
 1053 0690 FD7BC6A8 		ldp	x29, x30, [sp], 96
 1054              		.cfi_remember_state
 1055              		.cfi_restore 30
 1056              		.cfi_restore 29
 1057              		.cfi_restore 21
 1058              		.cfi_restore 22
 1059              		.cfi_restore 19
 1060              		.cfi_restore 20
 1061              		.cfi_def_cfa_offset 0
 1062              	.LVL76:
 1063              		.loc 2 177 5 view .LVU318
 1064 0694 C0035FD6 		ret
 1065              	.LVL77:
 1066              	.L89:
 1067              		.cfi_restore_state
 128:../../Include/ImagePng.h **** 
 1068              		.loc 2 128 13 is_stmt 1 view .LVU319
 128:../../Include/ImagePng.h **** 
 1069              		.loc 2 128 32 is_stmt 0 view .LVU320
 1070 0698 00000094 		bl	png_set_gray_to_rgb
 1071              	.LVL78:
 130:../../Include/ImagePng.h **** 
 1072              		.loc 2 130 29 view .LVU321
 1073 069c E01F40F9 		ldr	x0, [sp, 56]
AARCH64 GAS  obj/Ch15_05.s 			page 29


 1074 06a0 000040F9 		ldr	x0, [x0]
 1075 06a4 93FFFF17 		b	.L40
 1076              	.L88:
 122:../../Include/ImagePng.h **** 
 1077              		.loc 2 122 13 is_stmt 1 view .LVU322
 122:../../Include/ImagePng.h **** 
 1078              		.loc 2 122 34 is_stmt 0 view .LVU323
 1079 06a8 00000094 		bl	png_set_tRNS_to_alpha
 1080              	.LVL79:
 125:../../Include/ImagePng.h **** 
 1081              		.loc 2 125 27 view .LVU324
 1082 06ac E01F40F9 		ldr	x0, [sp, 56]
 1083 06b0 000040F9 		ldr	x0, [x0]
 1084 06b4 80FFFF17 		b	.L38
 1085              	.L86:
 116:../../Include/ImagePng.h **** 
 1086              		.loc 2 116 13 is_stmt 1 view .LVU325
 116:../../Include/ImagePng.h **** 
 1087              		.loc 2 116 35 is_stmt 0 view .LVU326
 1088 06b8 00000094 		bl	png_set_palette_to_rgb
 1089              	.LVL80:
 118:../../Include/ImagePng.h ****             png_set_expand_gray_1_2_4_to_8(m_Png);
 1090              		.loc 2 118 13 view .LVU327
 1091 06bc E01F40F9 		ldr	x0, [sp, 56]
 1092 06c0 01A04039 		ldrb	w1, [x0, 40]
 119:../../Include/ImagePng.h **** 
 1093              		.loc 2 119 43 view .LVU328
 1094 06c4 000040F9 		ldr	x0, [x0]
 1095 06c8 6EFFFF17 		b	.L36
 1096              	.L85:
 113:../../Include/ImagePng.h **** 
 1097              		.loc 2 113 13 is_stmt 1 view .LVU329
 113:../../Include/ImagePng.h **** 
 1098              		.loc 2 113 29 is_stmt 0 view .LVU330
 1099 06cc 00000094 		bl	png_set_strip_16
 1100              	.LVL81:
 116:../../Include/ImagePng.h **** 
 1101              		.loc 2 116 35 view .LVU331
 1102 06d0 E01F40F9 		ldr	x0, [sp, 56]
 1103 06d4 000040F9 		ldr	x0, [x0]
 1104 06d8 66FFFF17 		b	.L35
 1105              	.L87:
 119:../../Include/ImagePng.h **** 
 1106              		.loc 2 119 13 is_stmt 1 view .LVU332
 119:../../Include/ImagePng.h **** 
 1107              		.loc 2 119 43 is_stmt 0 view .LVU333
 1108 06dc 00000094 		bl	png_set_expand_gray_1_2_4_to_8
 1109              	.LVL82:
 1110              	.LEHE0:
 121:../../Include/ImagePng.h ****             png_set_tRNS_to_alpha(m_Png);
 1111              		.loc 2 121 27 view .LVU334
 1112 06e0 E01F40F9 		ldr	x0, [sp, 56]
 1113 06e4 000040F9 		ldr	x0, [x0]
 1114 06e8 6CFFFF17 		b	.L37
 1115              	.LVL83:
 1116              	.L46:
 173:../../Include/ImagePng.h **** 
AARCH64 GAS  obj/Ch15_05.s 			page 30


 1117              		.loc 2 173 9 is_stmt 1 view .LVU335
 1118              	.LBB822:
  40:../../Include/ImagePng.h ****     {
 1119              		.loc 2 40 10 view .LVU336
 1120              	.LBB811:
  42:../../Include/ImagePng.h ****         {
 1121              		.loc 2 42 9 view .LVU337
 1122 06ec C0FBFFB5 		cbnz	x0, .L53
 1123              	.LVL84:
 1124              	.L63:
  44:../../Include/ImagePng.h ****                 return;
 1125              		.loc 2 44 13 view .LVU338
  47:../../Include/ImagePng.h ****         }
 1126              		.loc 2 47 17 view .LVU339
  47:../../Include/ImagePng.h ****         }
 1127              		.loc 2 47 93 is_stmt 0 view .LVU340
 1128 06f0 000280D2 		mov	x0, 16
 1129 06f4 00000094 		bl	__cxa_allocate_exception
 1130              	.LVL85:
  47:../../Include/ImagePng.h ****         }
 1131              		.loc 2 47 17 view .LVU341
 1132 06f8 01000090 		adrp	x1, .LC9
  47:../../Include/ImagePng.h ****         }
 1133              		.loc 2 47 93 view .LVU342
 1134 06fc F30300AA 		mov	x19, x0
  47:../../Include/ImagePng.h ****         }
 1135              		.loc 2 47 17 view .LVU343
 1136 0700 21000091 		add	x1, x1, :lo12:.LC9
 1137              	.LEHB1:
 1138 0704 00000094 		bl	_ZNSt13runtime_errorC1EPKc
 1139              	.LVL86:
 1140              	.LEHE1:
 1141 0708 0B000014 		b	.L80
 1142              	.LVL87:
 1143              	.L49:
  47:../../Include/ImagePng.h ****         }
 1144              		.loc 2 47 17 view .LVU344
 1145              	.LBE811:
 1146              	.LBE822:
 173:../../Include/ImagePng.h **** 
 1147              		.loc 2 173 9 is_stmt 1 view .LVU345
 1148              	.LBB823:
  40:../../Include/ImagePng.h ****     {
 1149              		.loc 2 40 10 view .LVU346
 1150              	.LBB812:
  42:../../Include/ImagePng.h ****         {
 1151              		.loc 2 42 9 view .LVU347
 1152 070c 20FFFFB4 		cbz	x0, .L63
 1153              	.LVL88:
 1154              	.LBB806:
 1155              	.LBB804:
 1156              	.LBB802:
  50:../../Include/ImagePng.h ****             free(m_RowPointers[i]);
 1157              		.loc 2 50 27 view .LVU348
 1158 0710 3F000071 		cmp	w1, 0
 1159 0714 8DFAFF54 		ble	.L53
 1160 0718 C8FFFF17 		b	.L64
AARCH64 GAS  obj/Ch15_05.s 			page 31


 1161              	.LVL89:
 1162              	.L90:
  50:../../Include/ImagePng.h ****             free(m_RowPointers[i]);
 1163              		.loc 2 50 27 is_stmt 0 view .LVU349
 1164              	.LBE802:
 1165              	.LBE804:
 1166              	.LBE806:
 1167              	.LBE812:
 1168              	.LBE823:
 139:../../Include/ImagePng.h **** 
 1169              		.loc 2 139 13 is_stmt 1 view .LVU350
 139:../../Include/ImagePng.h **** 
 1170              		.loc 2 139 83 is_stmt 0 view .LVU351
 1171 071c 000280D2 		mov	x0, 16
 1172 0720 00000094 		bl	__cxa_allocate_exception
 1173              	.LVL90:
 139:../../Include/ImagePng.h **** 
 1174              		.loc 2 139 13 view .LVU352
 1175 0724 01000090 		adrp	x1, .LC7
 139:../../Include/ImagePng.h **** 
 1176              		.loc 2 139 83 view .LVU353
 1177 0728 F30300AA 		mov	x19, x0
 139:../../Include/ImagePng.h **** 
 1178              		.loc 2 139 13 view .LVU354
 1179 072c 21000091 		add	x1, x1, :lo12:.LC7
 1180              	.LEHB2:
 1181 0730 00000094 		bl	_ZNSt13runtime_errorC1EPKc
 1182              	.LVL91:
 1183              	.LEHE2:
 1184              	.L80:
 1185              	.LBB824:
 1186              	.LBB813:
  47:../../Include/ImagePng.h ****         }
 1187              		.loc 2 47 93 view .LVU355
 1188 0734 02000090 		adrp	x2, :got:_ZNSt13runtime_errorD1Ev
 1189 0738 01000090 		adrp	x1, :got:_ZTISt13runtime_error
 1190 073c E00313AA 		mov	x0, x19
 1191 0740 420040F9 		ldr	x2, [x2, #:got_lo12:_ZNSt13runtime_errorD1Ev]
 1192 0744 210040F9 		ldr	x1, [x1, #:got_lo12:_ZTISt13runtime_error]
 1193              	.LEHB3:
 1194 0748 00000094 		bl	__cxa_throw
 1195              	.LVL92:
 1196              	.LEHE3:
 1197              	.L83:
  47:../../Include/ImagePng.h ****         }
 1198              		.loc 2 47 93 view .LVU356
 1199              	.LBE813:
 1200              	.LBE824:
  89:../../Include/ImagePng.h **** 
 1201              		.loc 2 89 13 is_stmt 1 view .LVU357
  89:../../Include/ImagePng.h **** 
 1202              		.loc 2 89 90 is_stmt 0 view .LVU358
 1203 074c 000280D2 		mov	x0, 16
 1204 0750 00000094 		bl	__cxa_allocate_exception
 1205              	.LVL93:
  89:../../Include/ImagePng.h **** 
 1206              		.loc 2 89 13 view .LVU359
AARCH64 GAS  obj/Ch15_05.s 			page 32


 1207 0754 01000090 		adrp	x1, .LC5
  89:../../Include/ImagePng.h **** 
 1208              		.loc 2 89 90 view .LVU360
 1209 0758 F30300AA 		mov	x19, x0
 1210              	.LVL94:
  89:../../Include/ImagePng.h **** 
 1211              		.loc 2 89 13 view .LVU361
 1212 075c 21000091 		add	x1, x1, :lo12:.LC5
 1213              	.LEHB4:
 1214 0760 00000094 		bl	_ZNSt13runtime_errorC1EPKc
 1215              	.LVL95:
 1216              	.LEHE4:
 1217 0764 F4FFFF17 		b	.L80
 1218              	.LVL96:
 1219              	.L82:
  84:../../Include/ImagePng.h **** 
 1220              		.loc 2 84 13 is_stmt 1 view .LVU362
  84:../../Include/ImagePng.h **** 
 1221              		.loc 2 84 90 is_stmt 0 view .LVU363
 1222 0768 000280D2 		mov	x0, 16
 1223 076c 00000094 		bl	__cxa_allocate_exception
 1224              	.LVL97:
  84:../../Include/ImagePng.h **** 
 1225              		.loc 2 84 13 view .LVU364
 1226 0770 01000090 		adrp	x1, .LC4
  84:../../Include/ImagePng.h **** 
 1227              		.loc 2 84 90 view .LVU365
 1228 0774 F30300AA 		mov	x19, x0
 1229              	.LVL98:
  84:../../Include/ImagePng.h **** 
 1230              		.loc 2 84 13 view .LVU366
 1231 0778 21000091 		add	x1, x1, :lo12:.LC4
 1232              	.LEHB5:
 1233 077c 00000094 		bl	_ZNSt13runtime_errorC1EPKc
 1234              	.LVL99:
 1235              	.LEHE5:
 1236 0780 EDFFFF17 		b	.L80
 1237              	.LVL100:
 1238              	.L66:
 1239              	.L79:
 139:../../Include/ImagePng.h **** 
 1240              		.loc 2 139 83 view .LVU367
 1241 0784 E10300AA 		mov	x1, x0
 1242 0788 E00313AA 		mov	x0, x19
 1243 078c F30301AA 		mov	x19, x1
 1244 0790 00000094 		bl	__cxa_free_exception
 1245              	.LVL101:
 1246 0794 E00313AA 		mov	x0, x19
 1247              	.LEHB6:
 1248 0798 00000094 		bl	_Unwind_Resume
 1249              	.LVL102:
 1250              	.LEHE6:
 1251              	.L68:
 1252 079c FAFFFF17 		b	.L79
 1253              	.L69:
 1254 07a0 F9FFFF17 		b	.L79
 1255              	.LVL103:
AARCH64 GAS  obj/Ch15_05.s 			page 33


 1256              	.L81:
  79:../../Include/ImagePng.h **** 
 1257              		.loc 2 79 13 is_stmt 1 view .LVU368
  79:../../Include/ImagePng.h **** 
 1258              		.loc 2 79 73 is_stmt 0 view .LVU369
 1259 07a4 000280D2 		mov	x0, 16
 1260 07a8 00000094 		bl	__cxa_allocate_exception
 1261              	.LVL104:
  79:../../Include/ImagePng.h **** 
 1262              		.loc 2 79 13 view .LVU370
 1263 07ac 01000090 		adrp	x1, .LC2
  79:../../Include/ImagePng.h **** 
 1264              		.loc 2 79 73 view .LVU371
 1265 07b0 F30300AA 		mov	x19, x0
 1266              	.LVL105:
  79:../../Include/ImagePng.h **** 
 1267              		.loc 2 79 13 view .LVU372
 1268 07b4 21000091 		add	x1, x1, :lo12:.LC2
 1269              	.LEHB7:
 1270 07b8 00000094 		bl	_ZNSt13runtime_errorC1EPKc
 1271              	.LVL106:
 1272              	.LEHE7:
 1273 07bc DEFFFF17 		b	.L80
 1274              	.L84:
  92:../../Include/ImagePng.h **** 
 1275              		.loc 2 92 13 is_stmt 1 view .LVU373
  92:../../Include/ImagePng.h **** 
 1276              		.loc 2 92 74 is_stmt 0 view .LVU374
 1277 07c0 000280D2 		mov	x0, 16
 1278 07c4 00000094 		bl	__cxa_allocate_exception
 1279              	.LVL107:
  92:../../Include/ImagePng.h **** 
 1280              		.loc 2 92 13 view .LVU375
 1281 07c8 01000090 		adrp	x1, .LC6
  92:../../Include/ImagePng.h **** 
 1282              		.loc 2 92 74 view .LVU376
 1283 07cc F30300AA 		mov	x19, x0
  92:../../Include/ImagePng.h **** 
 1284              		.loc 2 92 13 view .LVU377
 1285 07d0 21000091 		add	x1, x1, :lo12:.LC6
 1286              	.LEHB8:
 1287 07d4 00000094 		bl	_ZNSt13runtime_errorC1EPKc
 1288              	.LVL108:
 1289              	.LEHE8:
 1290 07d8 D7FFFF17 		b	.L80
 1291              	.L70:
 1292 07dc EAFFFF17 		b	.L79
 1293              	.L67:
 1294 07e0 E9FFFF17 		b	.L79
 1295              	.LVL109:
 1296              	.L91:
 1297              	.LBB825:
 1298              	.LBB780:
  32:../../Include/ImagePng.h **** 
 1299              		.loc 2 32 13 is_stmt 1 view .LVU378
  32:../../Include/ImagePng.h **** 
 1300              		.loc 2 32 91 is_stmt 0 view .LVU379
AARCH64 GAS  obj/Ch15_05.s 			page 34


 1301 07e4 000280D2 		mov	x0, 16
 1302 07e8 00000094 		bl	__cxa_allocate_exception
 1303              	.LVL110:
  32:../../Include/ImagePng.h **** 
 1304              		.loc 2 32 13 view .LVU380
 1305 07ec 01000090 		adrp	x1, .LC8
  32:../../Include/ImagePng.h **** 
 1306              		.loc 2 32 91 view .LVU381
 1307 07f0 F30300AA 		mov	x19, x0
  32:../../Include/ImagePng.h **** 
 1308              		.loc 2 32 13 view .LVU382
 1309 07f4 21000091 		add	x1, x1, :lo12:.LC8
 1310              	.LEHB9:
 1311 07f8 00000094 		bl	_ZNSt13runtime_errorC1EPKc
 1312              	.LVL111:
 1313              	.LEHE9:
 1314 07fc CEFFFF17 		b	.L80
 1315              	.L71:
 1316 0800 E1FFFF17 		b	.L79
 1317              	.LVL112:
 1318              	.L72:
  32:../../Include/ImagePng.h **** 
 1319              		.loc 2 32 13 view .LVU383
 1320 0804 E0FFFF17 		b	.L79
 1321              	.LBE780:
 1322              	.LBE825:
 1323              		.cfi_endproc
 1324              	.LFE2177:
 1325              		.global	__gxx_personality_v0
 1326              		.section	.gcc_except_table,"a",@progbits
 1327              	.LLSDA2177:
 1328 0000 FF       		.byte	0xff
 1329 0001 FF       		.byte	0xff
 1330 0002 01       		.byte	0x1
 1331 0003 39       		.uleb128 .LLSDACSE2177-.LLSDACSB2177
 1332              	.LLSDACSB2177:
 1333 0004 2C       		.uleb128 .LEHB0-.LFB2177
 1334 0005 D406     		.uleb128 .LEHE0-.LEHB0
 1335 0007 00       		.uleb128 0
 1336 0008 00       		.uleb128 0
 1337 0009 A407     		.uleb128 .LEHB1-.LFB2177
 1338 000b 04       		.uleb128 .LEHE1-.LEHB1
 1339 000c A409     		.uleb128 .L72-.LFB2177
 1340 000e 00       		.uleb128 0
 1341 000f D007     		.uleb128 .LEHB2-.LFB2177
 1342 0011 04       		.uleb128 .LEHE2-.LEHB2
 1343 0012 A408     		.uleb128 .L66-.LFB2177
 1344 0014 00       		.uleb128 0
 1345 0015 E807     		.uleb128 .LEHB3-.LFB2177
 1346 0017 04       		.uleb128 .LEHE3-.LEHB3
 1347 0018 00       		.uleb128 0
 1348 0019 00       		.uleb128 0
 1349 001a 8008     		.uleb128 .LEHB4-.LFB2177
 1350 001c 04       		.uleb128 .LEHE4-.LEHB4
 1351 001d BC08     		.uleb128 .L68-.LFB2177
 1352 001f 00       		.uleb128 0
 1353 0020 9C08     		.uleb128 .LEHB5-.LFB2177
AARCH64 GAS  obj/Ch15_05.s 			page 35


 1354 0022 04       		.uleb128 .LEHE5-.LEHB5
 1355 0023 C008     		.uleb128 .L69-.LFB2177
 1356 0025 00       		.uleb128 0
 1357 0026 B808     		.uleb128 .LEHB6-.LFB2177
 1358 0028 04       		.uleb128 .LEHE6-.LEHB6
 1359 0029 00       		.uleb128 0
 1360 002a 00       		.uleb128 0
 1361 002b D808     		.uleb128 .LEHB7-.LFB2177
 1362 002d 04       		.uleb128 .LEHE7-.LEHB7
 1363 002e FC08     		.uleb128 .L70-.LFB2177
 1364 0030 00       		.uleb128 0
 1365 0031 F408     		.uleb128 .LEHB8-.LFB2177
 1366 0033 04       		.uleb128 .LEHE8-.LEHB8
 1367 0034 8009     		.uleb128 .L67-.LFB2177
 1368 0036 00       		.uleb128 0
 1369 0037 9809     		.uleb128 .LEHB9-.LFB2177
 1370 0039 04       		.uleb128 .LEHE9-.LEHB9
 1371 003a A009     		.uleb128 .L71-.LFB2177
 1372 003c 00       		.uleb128 0
 1373              	.LLSDACSE2177:
 1374              		.text
 1375              		.size	_ZN8ImagePng9LoadImageERKNSt7__cxx1112basic_stringIcSt11char_traitsIcESaIcEEEPhiPiS9_.isra.0
 1376              		.section	.rodata.str1.8
 1377 016a 00000000 		.align	3
 1377      0000
 1378              	.LC10:
 1379 0170 776200   		.string	"wb"
 1380 0173 00000000 		.align	3
 1380      00
 1381              	.LC11:
 1382 0178 496D6167 		.string	"ImagePng::SaveImage - fopen error"
 1382      65506E67 
 1382      3A3A5361 
 1382      7665496D 
 1382      61676520 
 1383 019a 00000000 		.align	3
 1383      0000
 1384              	.LC12:
 1385 01a0 496D6167 		.string	"ImagePng::SaveImage - png_create_write_struct error"
 1385      65506E67 
 1385      3A3A5361 
 1385      7665496D 
 1385      61676520 
 1386 01d4 00000000 		.align	3
 1387              	.LC13:
 1388 01d8 496D6167 		.string	"ImagePng::SaveImage - png_create_info_struct error"
 1388      65506E67 
 1388      3A3A5361 
 1388      7665496D 
 1388      61676520 
 1389 020b 00000000 		.align	3
 1389      00
 1390              	.LC14:
 1391 0210 496D6167 		.string	"ImagePng::SaveImage - setjmp error"
 1391      65506E67 
 1391      3A3A5361 
 1391      7665496D 
AARCH64 GAS  obj/Ch15_05.s 			page 36


 1391      61676520 
 1392              		.text
 1393              		.align	2
 1394 0808 1F2003D5 		.p2align 4,,11
 1394      1F2003D5 
 1395              		.type	_ZN8ImagePng9SaveImageERKNSt7__cxx1112basic_stringIcSt11char_traitsIcESaIcEEEPKhii.isra.0, %
 1396              	_ZN8ImagePng9SaveImageERKNSt7__cxx1112basic_stringIcSt11char_traitsIcESaIcEEEPKhii.isra.0:
 1397              	.LVL113:
 1398              	.LFB2178:
 178:../../Include/ImagePng.h **** 
 179:../../Include/ImagePng.h ****     void SaveImage(const std::string& filename, const uint8_t* pixel_buff, int height, int width)
 1399              		.loc 2 179 10 is_stmt 1 view -0
 1400              		.cfi_startproc
 1401              		.cfi_personality 0x9b,DW.ref.__gxx_personality_v0
 1402              		.cfi_lsda 0x1b,.LLSDA2178
 180:../../Include/ImagePng.h ****     {
 181:../../Include/ImagePng.h ****         if ((m_Fp = fopen(filename.c_str(), "wb")) == NULL)
 1403              		.loc 2 181 9 view .LVU385
 179:../../Include/ImagePng.h ****     {
 1404              		.loc 2 179 10 is_stmt 0 view .LVU386
 1405 0810 FF8301D1 		sub	sp, sp, #96
 1406              		.cfi_def_cfa_offset 96
 1407 0814 FD7B01A9 		stp	x29, x30, [sp, 16]
 1408              		.cfi_offset 29, -80
 1409              		.cfi_offset 30, -72
 1410 0818 FD430091 		add	x29, sp, 16
 1411 081c F35302A9 		stp	x19, x20, [sp, 32]
 1412              		.cfi_offset 19, -64
 1413              		.cfi_offset 20, -56
 1414 0820 F30300AA 		mov	x19, x0
 1415 0824 F55B03A9 		stp	x21, x22, [sp, 48]
 1416              		.cfi_offset 21, -48
 1417              		.cfi_offset 22, -40
 179:../../Include/ImagePng.h ****     {
 1418              		.loc 2 179 10 view .LVU387
 1419 0828 E08B04A9 		stp	x0, x2, [sp, 72]
 1420              		.loc 2 181 26 view .LVU388
 1421 082c E00301AA 		mov	x0, x1
 1422              	.LVL114:
 1423              		.loc 2 181 26 view .LVU389
 1424 0830 01000090 		adrp	x1, .LC10
 1425 0834 21000091 		add	x1, x1, :lo12:.LC10
 179:../../Include/ImagePng.h ****     {
 1426              		.loc 2 179 10 view .LVU390
 1427 0838 E3130B29 		stp	w3, w4, [sp, 88]
 1428              	.LEHB10:
 1429              		.loc 2 181 26 view .LVU391
 1430 083c 00000094 		bl	fopen
 1431              	.LVL115:
 1432              		.loc 2 181 19 view .LVU392
 1433 0840 600A00F9 		str	x0, [x19, 16]
 1434              		.loc 2 181 9 view .LVU393
 1435 0844 201200B4 		cbz	x0, .L133
 182:../../Include/ImagePng.h ****             throw std::runtime_error("ImagePng::SaveImage - fopen error");
 183:../../Include/ImagePng.h **** 
 184:../../Include/ImagePng.h ****         m_Png = png_create_write_struct(PNG_LIBPNG_VER_STRING, NULL, NULL, NULL);
 1436              		.loc 2 184 9 is_stmt 1 view .LVU394
AARCH64 GAS  obj/Ch15_05.s 			page 37


 1437              		.loc 2 184 40 is_stmt 0 view .LVU395
 1438 0848 020080D2 		mov	x2, 0
 1439 084c 00000090 		adrp	x0, .LC3
 1440 0850 030080D2 		mov	x3, 0
 1441 0854 00000091 		add	x0, x0, :lo12:.LC3
 1442 0858 010080D2 		mov	x1, 0
 1443 085c 00000094 		bl	png_create_write_struct
 1444              	.LVL116:
 1445              		.loc 2 184 15 view .LVU396
 1446 0860 E22740F9 		ldr	x2, [sp, 72]
 1447 0864 400000F9 		str	x0, [x2]
 185:../../Include/ImagePng.h **** 
 186:../../Include/ImagePng.h ****         if (!m_Png)
 1448              		.loc 2 186 9 is_stmt 1 view .LVU397
 1449 0868 201700B4 		cbz	x0, .L134
 187:../../Include/ImagePng.h ****             throw std::runtime_error("ImagePng::SaveImage - png_create_write_struct error");
 188:../../Include/ImagePng.h **** 
 189:../../Include/ImagePng.h ****         m_PngInfo = png_create_info_struct(m_Png);
 1450              		.loc 2 189 9 view .LVU398
 1451              		.loc 2 189 43 is_stmt 0 view .LVU399
 1452 086c 00000094 		bl	png_create_info_struct
 1453              	.LVL117:
 1454              		.loc 2 189 19 view .LVU400
 1455 0870 E12740F9 		ldr	x1, [sp, 72]
 1456 0874 200400F9 		str	x0, [x1, 8]
 190:../../Include/ImagePng.h **** 
 191:../../Include/ImagePng.h ****         if (!m_PngInfo)
 1457              		.loc 2 191 9 is_stmt 1 view .LVU401
 1458 0878 C01500B4 		cbz	x0, .L135
 192:../../Include/ImagePng.h ****             throw std::runtime_error("ImagePng::SaveImage - png_create_info_struct error");
 193:../../Include/ImagePng.h **** 
 194:../../Include/ImagePng.h ****         if (setjmp(png_jmpbuf(m_Png)))
 1459              		.loc 2 194 9 view .LVU402
 1460 087c E00301AA 		mov	x0, x1
 1461              		.loc 2 194 41 is_stmt 0 view .LVU403
 1462 0880 01000090 		adrp	x1, :got:longjmp
 1463 0884 022780D2 		mov	x2, 312
 1464 0888 210040F9 		ldr	x1, [x1, #:got_lo12:longjmp]
 1465 088c 000040F9 		ldr	x0, [x0]
 1466 0890 00000094 		bl	png_set_longjmp_fn
 1467              	.LVL118:
 1468              		.loc 2 194 20 view .LVU404
 1469 0894 00000094 		bl	_setjmp
 1470              	.LVL119:
 1471 0898 F303002A 		mov	w19, w0
 1472              	.LVL120:
 1473              		.loc 2 194 9 view .LVU405
 1474 089c 80130035 		cbnz	w0, .L136
 195:../../Include/ImagePng.h ****             throw std::runtime_error("ImagePng::SaveImage - setjmp error");
 196:../../Include/ImagePng.h **** 
 197:../../Include/ImagePng.h ****         png_init_io(m_Png, m_Fp);
 1475              		.loc 2 197 9 is_stmt 1 view .LVU406
 1476              		.loc 2 197 20 is_stmt 0 view .LVU407
 1477 08a0 F42740F9 		ldr	x20, [sp, 72]
 1478 08a4 800240F9 		ldr	x0, [x20]
 1479 08a8 810A40F9 		ldr	x1, [x20, 16]
 1480 08ac 00000094 		bl	png_init_io
AARCH64 GAS  obj/Ch15_05.s 			page 38


 1481              	.LVL121:
 198:../../Include/ImagePng.h **** 
 199:../../Include/ImagePng.h ****         //
 200:../../Include/ImagePng.h ****         //
 201:../../Include/ImagePng.h ****         //
 202:../../Include/ImagePng.h **** 
 203:../../Include/ImagePng.h ****         m_Width = width;
 1482              		.loc 2 203 9 is_stmt 1 view .LVU408
 204:../../Include/ImagePng.h ****         m_Height = height;
 205:../../Include/ImagePng.h ****         m_BitDepth = 8;
 206:../../Include/ImagePng.h ****         m_ColorType = PNG_COLOR_TYPE_RGBA;
 207:../../Include/ImagePng.h **** 
 208:../../Include/ImagePng.h ****         png_set_IHDR(
 1483              		.loc 2 208 21 is_stmt 0 view .LVU409
 1484 08b0 800240F9 		ldr	x0, [x20]
 1485 08b4 FF0300B9 		str	wzr, [sp]
 204:../../Include/ImagePng.h ****         m_Height = height;
 1486              		.loc 2 204 18 view .LVU410
 1487 08b8 E35B40B9 		ldr	w3, [sp, 88]
 206:../../Include/ImagePng.h **** 
 1488              		.loc 2 206 21 view .LVU411
 1489 08bc C2008152 		mov	w2, 2054
 1490              		.loc 2 208 21 view .LVU412
 1491 08c0 810640F9 		ldr	x1, [x20, 8]
 204:../../Include/ImagePng.h ****         m_Height = height;
 1492              		.loc 2 204 18 view .LVU413
 1493 08c4 832600B9 		str	w3, [x20, 36]
 203:../../Include/ImagePng.h ****         m_Height = height;
 1494              		.loc 2 203 17 view .LVU414
 1495 08c8 E55F40B9 		ldr	w5, [sp, 92]
 1496              		.loc 2 208 21 view .LVU415
 1497 08cc 07008052 		mov	w7, 0
 203:../../Include/ImagePng.h ****         m_Height = height;
 1498              		.loc 2 203 17 view .LVU416
 1499 08d0 852200B9 		str	w5, [x20, 32]
 204:../../Include/ImagePng.h ****         m_Height = height;
 1500              		.loc 2 204 9 is_stmt 1 view .LVU417
 205:../../Include/ImagePng.h ****         m_ColorType = PNG_COLOR_TYPE_RGBA;
 1501              		.loc 2 205 9 view .LVU418
 206:../../Include/ImagePng.h **** 
 1502              		.loc 2 206 9 view .LVU419
 1503              		.loc 2 208 9 view .LVU420
 1504              		.loc 2 208 21 is_stmt 0 view .LVU421
 1505 08d4 06008052 		mov	w6, 0
 206:../../Include/ImagePng.h **** 
 1506              		.loc 2 206 21 view .LVU422
 1507 08d8 82520079 		strh	w2, [x20, 40]
 1508              		.loc 2 208 21 view .LVU423
 1509 08dc 04018052 		mov	w4, 8
 1510 08e0 E203052A 		mov	w2, w5
 1511 08e4 C5008052 		mov	w5, 6
 1512 08e8 00000094 		bl	png_set_IHDR
 1513              	.LVL122:
 209:../../Include/ImagePng.h ****             m_Png,
 210:../../Include/ImagePng.h ****             m_PngInfo,
 211:../../Include/ImagePng.h ****             m_Width,
 212:../../Include/ImagePng.h ****             m_Height,
AARCH64 GAS  obj/Ch15_05.s 			page 39


 213:../../Include/ImagePng.h ****             m_BitDepth,
 214:../../Include/ImagePng.h ****             m_ColorType,
 215:../../Include/ImagePng.h ****             PNG_INTERLACE_NONE,
 216:../../Include/ImagePng.h ****             PNG_COMPRESSION_TYPE_DEFAULT,
 217:../../Include/ImagePng.h ****             PNG_FILTER_TYPE_DEFAULT);
 218:../../Include/ImagePng.h **** 
 219:../../Include/ImagePng.h ****         png_write_info(m_Png, m_PngInfo);
 1514              		.loc 2 219 9 is_stmt 1 view .LVU424
 1515              		.loc 2 219 23 is_stmt 0 view .LVU425
 1516 08ec 800640A9 		ldp	x0, x1, [x20]
 1517 08f0 00000094 		bl	png_write_info
 1518              	.LVL123:
 220:../../Include/ImagePng.h **** 
 221:../../Include/ImagePng.h ****         //
 222:../../Include/ImagePng.h ****         // Copy caller's pixel data to PNG buffers
 223:../../Include/ImagePng.h ****         //
 224:../../Include/ImagePng.h **** 
 225:../../Include/ImagePng.h ****         AllocRowPointers();
 1519              		.loc 2 225 9 is_stmt 1 view .LVU426
 1520              	.LBB842:
 1521              	.LBI842:
  29:../../Include/ImagePng.h ****     {
 1522              		.loc 2 29 10 view .LVU427
 1523              	.LBB843:
  31:../../Include/ImagePng.h ****             throw std::runtime_error("ImagePng::AllocRowPointers - m_RowPointers not NULL");
 1524              		.loc 2 31 9 view .LVU428
 1525 08f4 800E40F9 		ldr	x0, [x20, 24]
 1526 08f8 C00F00B5 		cbnz	x0, .L137
  34:../../Include/ImagePng.h **** 
 1527              		.loc 2 34 9 view .LVU429
  34:../../Include/ImagePng.h **** 
 1528              		.loc 2 34 64 is_stmt 0 view .LVU430
 1529 08fc F62740F9 		ldr	x22, [sp, 72]
 1530 0900 D52640B9 		ldr	w21, [x22, 36]
  34:../../Include/ImagePng.h **** 
 1531              		.loc 2 34 43 view .LVU431
 1532 0904 A07E7D93 		sbfiz	x0, x21, 3, 32
 1533 0908 00000094 		bl	malloc
 1534              	.LVL124:
  34:../../Include/ImagePng.h **** 
 1535              		.loc 2 34 23 view .LVU432
 1536 090c C00E00F9 		str	x0, [x22, 24]
  36:../../Include/ImagePng.h ****             m_RowPointers[i] = (png_byte*)malloc(png_get_rowbytes(m_Png, m_PngInfo));
 1537              		.loc 2 36 9 is_stmt 1 view .LVU433
 1538              	.LVL125:
 1539              	.LBB844:
  36:../../Include/ImagePng.h ****             m_RowPointers[i] = (png_byte*)malloc(png_get_rowbytes(m_Png, m_PngInfo));
 1540              		.loc 2 36 27 view .LVU434
 1541              	.LBE844:
  34:../../Include/ImagePng.h **** 
 1542              		.loc 2 34 43 is_stmt 0 view .LVU435
 1543 0910 F40300AA 		mov	x20, x0
 1544              	.LVL126:
 1545              	.LBB845:
  36:../../Include/ImagePng.h ****             m_RowPointers[i] = (png_byte*)malloc(png_get_rowbytes(m_Png, m_PngInfo));
 1546              		.loc 2 36 27 view .LVU436
 1547 0914 BF020071 		cmp	w21, 0
AARCH64 GAS  obj/Ch15_05.s 			page 40


 1548 0918 ED060054 		ble	.L100
 1549 091c 150080D2 		mov	x21, 0
 1550              	.LVL127:
 1551              		.p2align 3,,7
 1552              	.L101:
  37:../../Include/ImagePng.h ****     }
 1553              		.loc 2 37 13 is_stmt 1 view .LVU437
  37:../../Include/ImagePng.h ****     }
 1554              		.loc 2 37 49 is_stmt 0 view .LVU438
 1555 0920 F62740F9 		ldr	x22, [sp, 72]
 1556 0924 C00640A9 		ldp	x0, x1, [x22]
 1557 0928 00000094 		bl	png_get_rowbytes
 1558              	.LVL128:
  37:../../Include/ImagePng.h ****     }
 1559              		.loc 2 37 13 view .LVU439
 1560 092c D40E40F9 		ldr	x20, [x22, 24]
  37:../../Include/ImagePng.h ****     }
 1561              		.loc 2 37 49 view .LVU440
 1562 0930 00000094 		bl	malloc
 1563              	.LVL129:
  36:../../Include/ImagePng.h ****             m_RowPointers[i] = (png_byte*)malloc(png_get_rowbytes(m_Png, m_PngInfo));
 1564              		.loc 2 36 29 view .LVU441
 1565 0934 C12640B9 		ldr	w1, [x22, 36]
  37:../../Include/ImagePng.h ****     }
 1566              		.loc 2 37 30 view .LVU442
 1567 0938 807A35F8 		str	x0, [x20, x21, lsl 3]
  36:../../Include/ImagePng.h ****             m_RowPointers[i] = (png_byte*)malloc(png_get_rowbytes(m_Png, m_PngInfo));
 1568              		.loc 2 36 9 is_stmt 1 view .LVU443
 1569              	.LVL130:
  36:../../Include/ImagePng.h ****             m_RowPointers[i] = (png_byte*)malloc(png_get_rowbytes(m_Png, m_PngInfo));
 1570              		.loc 2 36 27 view .LVU444
 1571 093c B5060091 		add	x21, x21, 1
 1572              	.LVL131:
  36:../../Include/ImagePng.h ****             m_RowPointers[i] = (png_byte*)malloc(png_get_rowbytes(m_Png, m_PngInfo));
 1573              		.loc 2 36 27 is_stmt 0 view .LVU445
 1574 0940 3F00156B 		cmp	w1, w21
 1575 0944 ECFEFF54 		bgt	.L101
 1576              	.LVL132:
  36:../../Include/ImagePng.h ****             m_RowPointers[i] = (png_byte*)malloc(png_get_rowbytes(m_Png, m_PngInfo));
 1577              		.loc 2 36 27 view .LVU446
 1578              	.LBE845:
 1579              	.LBE843:
 1580              	.LBE842:
 1581              	.LBB847:
 226:../../Include/ImagePng.h **** 
 227:../../Include/ImagePng.h ****         int k = 0;
 228:../../Include/ImagePng.h ****         for (int i = 0; i < m_Height; i++)
 1582              		.loc 2 228 27 is_stmt 1 view .LVU447
 1583 0948 3F000071 		cmp	w1, 0
 1584 094c 4D050054 		ble	.L100
 1585              	.LBB848:
 1586              	.LBB849:
 229:../../Include/ImagePng.h ****         {
 230:../../Include/ImagePng.h ****             png_bytep row_ptr = m_RowPointers[i];
 231:../../Include/ImagePng.h **** 
 232:../../Include/ImagePng.h ****             for (int j = 0; j < m_Width; j++)
 1587              		.loc 2 232 33 is_stmt 0 view .LVU448
AARCH64 GAS  obj/Ch15_05.s 			page 41


 1588 0950 E02740F9 		ldr	x0, [sp, 72]
 1589 0954 080080D2 		mov	x8, 0
 1590              	.LBE849:
 1591              	.LBE848:
 1592              	.LBE847:
 227:../../Include/ImagePng.h ****         for (int i = 0; i < m_Height; i++)
 1593              		.loc 2 227 13 view .LVU449
 1594 0958 E303132A 		mov	w3, w19
 1595              	.LBB859:
 228:../../Include/ImagePng.h ****         {
 1596              		.loc 2 228 18 view .LVU450
 1597 095c E903132A 		mov	w9, w19
 1598              	.LBB857:
 230:../../Include/ImagePng.h **** 
 1599              		.loc 2 230 23 view .LVU451
 1600 0960 866A68F8 		ldr	x6, [x20, x8]
 1601              	.LBB854:
 1602              		.loc 2 232 33 view .LVU452
 1603 0964 052040B9 		ldr	w5, [x0, 32]
 1604              	.LVL133:
 1605              		.loc 2 232 33 view .LVU453
 1606              	.LBE854:
 230:../../Include/ImagePng.h **** 
 1607              		.loc 2 230 13 is_stmt 1 view .LVU454
 1608              		.loc 2 232 13 view .LVU455
 1609              	.LBB855:
 1610              		.loc 2 232 31 view .LVU456
 1611 0968 BF000071 		cmp	w5, 0
 1612 096c 4D040054 		ble	.L100
 1613              	.LVL134:
 1614              		.p2align 3,,7
 1615              	.L138:
 1616              		.loc 2 232 31 is_stmt 0 view .LVU457
 1617 0970 E02B40F9 		ldr	x0, [sp, 80]
 1618 0974 67100011 		add	w7, w3, 4
 1619 0978 E10306AA 		mov	x1, x6
 1620              		.loc 2 232 22 view .LVU458
 1621 097c E403132A 		mov	w4, w19
 1622 0980 02C0238B 		add	x2, x0, x3, sxtw
 1623              	.LVL135:
 1624 0984 1F2003D5 		.p2align 3,,7
 1625              	.L106:
 1626              	.LBB850:
 233:../../Include/ImagePng.h ****             {
 234:../../Include/ImagePng.h ****                 png_bytep pixel_ptr = &row_ptr[j * 4];
 1627              		.loc 2 234 17 is_stmt 1 view .LVU459
 235:../../Include/ImagePng.h **** 
 236:../../Include/ImagePng.h ****                 pixel_ptr[0] = pixel_buff[k + 0];
 1628              		.loc 2 236 17 view .LVU460
 1629              		.loc 2 236 48 is_stmt 0 view .LVU461
 1630 0988 40004039 		ldrb	w0, [x2]
 1631 098c 2300064B 		sub	w3, w1, w6
 1632              		.loc 2 236 30 view .LVU462
 1633 0990 20000039 		strb	w0, [x1]
 237:../../Include/ImagePng.h ****                 pixel_ptr[1] = pixel_buff[k + 1];
 1634              		.loc 2 237 17 is_stmt 1 view .LVU463
 1635              	.LBE850:
AARCH64 GAS  obj/Ch15_05.s 			page 42


 232:../../Include/ImagePng.h ****             {
 1636              		.loc 2 232 13 is_stmt 0 view .LVU464
 1637 0994 84040011 		add	w4, w4, 1
 1638              	.LVL136:
 232:../../Include/ImagePng.h ****             {
 1639              		.loc 2 232 13 view .LVU465
 1640 0998 E300030B 		add	w3, w7, w3
 232:../../Include/ImagePng.h ****             {
 1641              		.loc 2 232 31 view .LVU466
 1642 099c 42100091 		add	x2, x2, 4
 1643              	.LBB851:
 1644              		.loc 2 237 48 view .LVU467
 1645 09a0 40D05F38 		ldrb	w0, [x2, -3]
 1646              	.LBE851:
 232:../../Include/ImagePng.h ****             {
 1647              		.loc 2 232 31 view .LVU468
 1648 09a4 21100091 		add	x1, x1, 4
 1649              	.LVL137:
 1650              	.LBB852:
 1651              		.loc 2 237 30 view .LVU469
 1652 09a8 20D01F38 		strb	w0, [x1, -3]
 238:../../Include/ImagePng.h ****                 pixel_ptr[2] = pixel_buff[k + 2];
 1653              		.loc 2 238 17 is_stmt 1 view .LVU470
 1654              	.LBE852:
 232:../../Include/ImagePng.h ****             {
 1655              		.loc 2 232 33 is_stmt 0 view .LVU471
 1656 09ac E02740F9 		ldr	x0, [sp, 72]
 1657              	.LBB853:
 1658              		.loc 2 238 48 view .LVU472
 1659 09b0 45E05F38 		ldrb	w5, [x2, -2]
 1660              		.loc 2 238 30 view .LVU473
 1661 09b4 25E01F38 		strb	w5, [x1, -2]
 239:../../Include/ImagePng.h ****                 pixel_ptr[3] = pixel_buff[k + 3];
 1662              		.loc 2 239 17 is_stmt 1 view .LVU474
 1663              		.loc 2 239 48 is_stmt 0 view .LVU475
 1664 09b8 45F05F38 		ldrb	w5, [x2, -1]
 1665              		.loc 2 239 30 view .LVU476
 1666 09bc 25F01F38 		strb	w5, [x1, -1]
 240:../../Include/ImagePng.h ****                 k += 4;
 1667              		.loc 2 240 17 is_stmt 1 view .LVU477
 1668              	.LVL138:
 1669              		.loc 2 240 17 is_stmt 0 view .LVU478
 1670              	.LBE853:
 232:../../Include/ImagePng.h ****             {
 1671              		.loc 2 232 13 is_stmt 1 view .LVU479
 232:../../Include/ImagePng.h ****             {
 1672              		.loc 2 232 31 view .LVU480
 232:../../Include/ImagePng.h ****             {
 1673              		.loc 2 232 33 is_stmt 0 view .LVU481
 1674 09c0 052040B9 		ldr	w5, [x0, 32]
 232:../../Include/ImagePng.h ****             {
 1675              		.loc 2 232 31 view .LVU482
 1676 09c4 BF00046B 		cmp	w5, w4
 1677 09c8 0CFEFF54 		bgt	.L106
 1678              	.LBE855:
 1679              	.LBE857:
 228:../../Include/ImagePng.h ****         {
AARCH64 GAS  obj/Ch15_05.s 			page 43


 1680              		.loc 2 228 27 view .LVU483
 1681 09cc E10300AA 		mov	x1, x0
 1682              	.LVL139:
 228:../../Include/ImagePng.h ****         {
 1683              		.loc 2 228 27 view .LVU484
 1684 09d0 002440B9 		ldr	w0, [x0, 36]
 228:../../Include/ImagePng.h ****         {
 1685              		.loc 2 228 9 view .LVU485
 1686 09d4 29050011 		add	w9, w9, 1
 1687              	.LVL140:
 228:../../Include/ImagePng.h ****         {
 1688              		.loc 2 228 9 view .LVU486
 1689              	.LBE859:
 241:../../Include/ImagePng.h ****             }
 242:../../Include/ImagePng.h ****         }
 243:../../Include/ImagePng.h **** 
 244:../../Include/ImagePng.h ****         //
 245:../../Include/ImagePng.h ****         // Write PNG image
 246:../../Include/ImagePng.h ****         //
 247:../../Include/ImagePng.h **** 
 248:../../Include/ImagePng.h ****         png_write_image(m_Png, m_RowPointers);
 1690              		.loc 2 248 24 view .LVU487
 1691 09d8 340C40F9 		ldr	x20, [x1, 24]
 1692              	.LBB860:
 228:../../Include/ImagePng.h ****         {
 1693              		.loc 2 228 9 is_stmt 1 view .LVU488
 1694              	.LVL141:
 228:../../Include/ImagePng.h ****         {
 1695              		.loc 2 228 27 view .LVU489
 1696 09dc 3F01006B 		cmp	w9, w0
 1697 09e0 AA000054 		bge	.L100
 1698 09e4 08210091 		add	x8, x8, 8
 1699              	.LBB858:
 230:../../Include/ImagePng.h **** 
 1700              		.loc 2 230 13 view .LVU490
 1701              	.LVL142:
 230:../../Include/ImagePng.h **** 
 1702              		.loc 2 230 23 is_stmt 0 view .LVU491
 1703 09e8 866A68F8 		ldr	x6, [x20, x8]
 232:../../Include/ImagePng.h ****             {
 1704              		.loc 2 232 13 is_stmt 1 view .LVU492
 1705              	.LVL143:
 1706              	.LBB856:
 232:../../Include/ImagePng.h ****             {
 1707              		.loc 2 232 31 view .LVU493
 1708 09ec BF000071 		cmp	w5, 0
 1709 09f0 0CFCFF54 		bgt	.L138
 1710              	.LVL144:
 1711              	.L100:
 232:../../Include/ImagePng.h ****             {
 1712              		.loc 2 232 31 is_stmt 0 view .LVU494
 1713              	.LBE856:
 1714              	.LBE858:
 1715              	.LBE860:
 1716              		.loc 2 248 9 is_stmt 1 view .LVU495
 1717              		.loc 2 248 24 is_stmt 0 view .LVU496
 1718 09f4 F32740F9 		ldr	x19, [sp, 72]
AARCH64 GAS  obj/Ch15_05.s 			page 44


 1719 09f8 E10314AA 		mov	x1, x20
 1720 09fc 600240F9 		ldr	x0, [x19]
 1721 0a00 00000094 		bl	png_write_image
 1722              	.LVL145:
 249:../../Include/ImagePng.h ****         png_write_end(m_Png, NULL);
 1723              		.loc 2 249 9 is_stmt 1 view .LVU497
 1724              		.loc 2 249 22 is_stmt 0 view .LVU498
 1725 0a04 600240F9 		ldr	x0, [x19]
 1726 0a08 010080D2 		mov	x1, 0
 1727 0a0c 00000094 		bl	png_write_end
 1728              	.LVL146:
 250:../../Include/ImagePng.h **** 
 251:../../Include/ImagePng.h ****         //
 252:../../Include/ImagePng.h ****         // Clean up
 253:../../Include/ImagePng.h ****         //
 254:../../Include/ImagePng.h **** 
 255:../../Include/ImagePng.h ****         FreeRowPointers();
 1729              		.loc 2 255 9 is_stmt 1 view .LVU499
 1730              	.LBB861:
 1731              	.LBI861:
  40:../../Include/ImagePng.h ****     {
 1732              		.loc 2 40 10 view .LVU500
 1733              	.LBB862:
  42:../../Include/ImagePng.h ****         {
 1734              		.loc 2 42 9 view .LVU501
  42:../../Include/ImagePng.h ****         {
 1735              		.loc 2 42 13 is_stmt 0 view .LVU502
 1736 0a10 600E40F9 		ldr	x0, [x19, 24]
  42:../../Include/ImagePng.h ****         {
 1737              		.loc 2 42 9 view .LVU503
 1738 0a14 200500B4 		cbz	x0, .L139
 1739              	.LVL147:
 1740              	.LBB863:
 1741              	.LBB864:
 1742              	.LBB865:
  50:../../Include/ImagePng.h ****             free(m_RowPointers[i]);
 1743              		.loc 2 50 27 is_stmt 1 view .LVU504
 1744 0a18 E12740F9 		ldr	x1, [sp, 72]
 1745 0a1c 212440B9 		ldr	w1, [x1, 36]
 1746 0a20 3F000071 		cmp	w1, 0
 1747 0a24 8D010054 		ble	.L109
 1748 0a28 130080D2 		mov	x19, 0
 1749              	.LVL148:
 1750 0a2c 1F2003D5 		.p2align 3,,7
 1751              	.L111:
  51:../../Include/ImagePng.h **** 
 1752              		.loc 2 51 13 view .LVU505
  51:../../Include/ImagePng.h **** 
 1753              		.loc 2 51 17 is_stmt 0 view .LVU506
 1754 0a30 007873F8 		ldr	x0, [x0, x19, lsl 3]
  50:../../Include/ImagePng.h ****             free(m_RowPointers[i]);
 1755              		.loc 2 50 27 view .LVU507
 1756 0a34 73060091 		add	x19, x19, 1
 1757              	.LVL149:
  51:../../Include/ImagePng.h **** 
 1758              		.loc 2 51 17 view .LVU508
 1759 0a38 00000094 		bl	free
AARCH64 GAS  obj/Ch15_05.s 			page 45


 1760              	.LVL150:
  50:../../Include/ImagePng.h ****             free(m_RowPointers[i]);
 1761              		.loc 2 50 9 is_stmt 1 view .LVU509
  50:../../Include/ImagePng.h ****             free(m_RowPointers[i]);
 1762              		.loc 2 50 27 view .LVU510
 1763 0a3c E02740F9 		ldr	x0, [sp, 72]
 1764 0a40 002440B9 		ldr	w0, [x0, 36]
 1765 0a44 1F00136B 		cmp	w0, w19
 1766              	.LBE865:
  53:../../Include/ImagePng.h ****         m_RowPointers = NULL;
 1767              		.loc 2 53 14 is_stmt 0 view .LVU511
 1768 0a48 E02740F9 		ldr	x0, [sp, 72]
 1769 0a4c 000C40F9 		ldr	x0, [x0, 24]
 1770              	.LBB866:
  50:../../Include/ImagePng.h ****             free(m_RowPointers[i]);
 1771              		.loc 2 50 27 view .LVU512
 1772 0a50 0CFFFF54 		bgt	.L111
 1773              	.L109:
 1774              	.LBE866:
  53:../../Include/ImagePng.h ****         m_RowPointers = NULL;
 1775              		.loc 2 53 9 is_stmt 1 view .LVU513
  53:../../Include/ImagePng.h ****         m_RowPointers = NULL;
 1776              		.loc 2 53 13 is_stmt 0 view .LVU514
 1777 0a54 00000094 		bl	free
 1778              	.LVL151:
  54:../../Include/ImagePng.h ****     }
 1779              		.loc 2 54 9 is_stmt 1 view .LVU515
 1780              	.LBE864:
 1781              	.LBE863:
 1782              	.LBE862:
 1783              	.LBE861:
 256:../../Include/ImagePng.h **** 
 257:../../Include/ImagePng.h ****         fclose(m_Fp);
 1784              		.loc 2 257 15 is_stmt 0 view .LVU516
 1785 0a58 F32740F9 		ldr	x19, [sp, 72]
 1786 0a5c 600A40F9 		ldr	x0, [x19, 16]
 1787              	.LBB871:
 1788              	.LBB869:
 1789              	.LBB868:
 1790              	.LBB867:
  54:../../Include/ImagePng.h ****     }
 1791              		.loc 2 54 23 view .LVU517
 1792 0a60 7F0E00F9 		str	xzr, [x19, 24]
 1793              	.LVL152:
  54:../../Include/ImagePng.h ****     }
 1794              		.loc 2 54 23 view .LVU518
 1795              	.LBE867:
 1796              	.LBE868:
 1797              	.LBE869:
 1798              	.LBE871:
 1799              		.loc 2 257 9 is_stmt 1 view .LVU519
 1800              		.loc 2 257 15 is_stmt 0 view .LVU520
 1801 0a64 00000094 		bl	fclose
 1802              	.LVL153:
 258:../../Include/ImagePng.h ****         png_destroy_write_struct(&m_Png, &m_PngInfo);
 1803              		.loc 2 258 9 is_stmt 1 view .LVU521
 1804              		.loc 2 258 33 is_stmt 0 view .LVU522
AARCH64 GAS  obj/Ch15_05.s 			page 46


 1805 0a68 61220091 		add	x1, x19, 8
 1806 0a6c E00313AA 		mov	x0, x19
 1807 0a70 00000094 		bl	png_destroy_write_struct
 1808              	.LVL154:
 1809              	.LEHE10:
 259:../../Include/ImagePng.h ****     }
 1810              		.loc 2 259 5 view .LVU523
 1811 0a74 FD7B41A9 		ldp	x29, x30, [sp, 16]
 1812 0a78 F35342A9 		ldp	x19, x20, [sp, 32]
 1813 0a7c F55B43A9 		ldp	x21, x22, [sp, 48]
 1814 0a80 FF830191 		add	sp, sp, 96
 1815              		.cfi_remember_state
 1816              		.cfi_restore 29
 1817              		.cfi_restore 30
 1818              		.cfi_restore 21
 1819              		.cfi_restore 22
 1820              		.cfi_restore 19
 1821              		.cfi_restore 20
 1822              		.cfi_def_cfa_offset 0
 1823              	.LVL155:
 1824              		.loc 2 259 5 view .LVU524
 1825 0a84 C0035FD6 		ret
 1826              	.LVL156:
 1827              	.L133:
 1828              		.cfi_restore_state
 182:../../Include/ImagePng.h **** 
 1829              		.loc 2 182 13 is_stmt 1 view .LVU525
 182:../../Include/ImagePng.h **** 
 1830              		.loc 2 182 73 is_stmt 0 view .LVU526
 1831 0a88 000280D2 		mov	x0, 16
 1832 0a8c 00000094 		bl	__cxa_allocate_exception
 1833              	.LVL157:
 182:../../Include/ImagePng.h **** 
 1834              		.loc 2 182 13 view .LVU527
 1835 0a90 01000090 		adrp	x1, .LC11
 182:../../Include/ImagePng.h **** 
 1836              		.loc 2 182 73 view .LVU528
 1837 0a94 F30300AA 		mov	x19, x0
 1838              	.LVL158:
 182:../../Include/ImagePng.h **** 
 1839              		.loc 2 182 13 view .LVU529
 1840 0a98 21000091 		add	x1, x1, :lo12:.LC11
 1841              	.LEHB11:
 1842 0a9c 00000094 		bl	_ZNSt13runtime_errorC1EPKc
 1843              	.LVL159:
 1844              	.LEHE11:
 1845              	.L132:
 1846              	.LBB872:
 1847              	.LBB870:
  47:../../Include/ImagePng.h ****         }
 1848              		.loc 2 47 93 view .LVU530
 1849 0aa0 02000090 		adrp	x2, :got:_ZNSt13runtime_errorD1Ev
 1850 0aa4 01000090 		adrp	x1, :got:_ZTISt13runtime_error
 1851 0aa8 E00313AA 		mov	x0, x19
 1852 0aac 420040F9 		ldr	x2, [x2, #:got_lo12:_ZNSt13runtime_errorD1Ev]
 1853 0ab0 210040F9 		ldr	x1, [x1, #:got_lo12:_ZTISt13runtime_error]
 1854              	.LEHB12:
AARCH64 GAS  obj/Ch15_05.s 			page 47


 1855 0ab4 00000094 		bl	__cxa_throw
 1856              	.LVL160:
 1857              	.LEHE12:
 1858              	.L139:
  44:../../Include/ImagePng.h ****                 return;
 1859              		.loc 2 44 13 is_stmt 1 view .LVU531
  47:../../Include/ImagePng.h ****         }
 1860              		.loc 2 47 17 view .LVU532
  47:../../Include/ImagePng.h ****         }
 1861              		.loc 2 47 93 is_stmt 0 view .LVU533
 1862 0ab8 000280D2 		mov	x0, 16
 1863 0abc 00000094 		bl	__cxa_allocate_exception
 1864              	.LVL161:
  47:../../Include/ImagePng.h ****         }
 1865              		.loc 2 47 17 view .LVU534
 1866 0ac0 01000090 		adrp	x1, .LC9
  47:../../Include/ImagePng.h ****         }
 1867              		.loc 2 47 93 view .LVU535
 1868 0ac4 F30300AA 		mov	x19, x0
 1869              	.LVL162:
  47:../../Include/ImagePng.h ****         }
 1870              		.loc 2 47 17 view .LVU536
 1871 0ac8 21000091 		add	x1, x1, :lo12:.LC9
 1872              	.LEHB13:
 1873 0acc 00000094 		bl	_ZNSt13runtime_errorC1EPKc
 1874              	.LVL163:
 1875              	.LEHE13:
 1876 0ad0 F4FFFF17 		b	.L132
 1877              	.LVL164:
 1878              	.L122:
 1879              	.L131:
  47:../../Include/ImagePng.h ****         }
 1880              		.loc 2 47 17 view .LVU537
 1881              	.LBE870:
 1882              	.LBE872:
 195:../../Include/ImagePng.h **** 
 1883              		.loc 2 195 74 view .LVU538
 1884 0ad4 E10300AA 		mov	x1, x0
 1885 0ad8 E00313AA 		mov	x0, x19
 1886 0adc F30301AA 		mov	x19, x1
 1887 0ae0 00000094 		bl	__cxa_free_exception
 1888              	.LVL165:
 1889 0ae4 E00313AA 		mov	x0, x19
 1890              	.LEHB14:
 1891 0ae8 00000094 		bl	_Unwind_Resume
 1892              	.LVL166:
 1893              	.LEHE14:
 1894              	.L124:
 195:../../Include/ImagePng.h **** 
 1895              		.loc 2 195 74 view .LVU539
 1896 0aec FAFFFF17 		b	.L131
 1897              	.LVL167:
 1898              	.L137:
 1899              	.LBB873:
 1900              	.LBB846:
  32:../../Include/ImagePng.h **** 
 1901              		.loc 2 32 13 is_stmt 1 view .LVU540
AARCH64 GAS  obj/Ch15_05.s 			page 48


  32:../../Include/ImagePng.h **** 
 1902              		.loc 2 32 91 is_stmt 0 view .LVU541
 1903 0af0 000280D2 		mov	x0, 16
 1904 0af4 00000094 		bl	__cxa_allocate_exception
 1905              	.LVL168:
  32:../../Include/ImagePng.h **** 
 1906              		.loc 2 32 13 view .LVU542
 1907 0af8 01000090 		adrp	x1, .LC8
  32:../../Include/ImagePng.h **** 
 1908              		.loc 2 32 91 view .LVU543
 1909 0afc F30300AA 		mov	x19, x0
  32:../../Include/ImagePng.h **** 
 1910              		.loc 2 32 13 view .LVU544
 1911 0b00 21000091 		add	x1, x1, :lo12:.LC8
 1912              	.LEHB15:
 1913 0b04 00000094 		bl	_ZNSt13runtime_errorC1EPKc
 1914              	.LVL169:
 1915              	.LEHE15:
 1916 0b08 E6FFFF17 		b	.L132
 1917              	.LVL170:
 1918              	.L136:
  32:../../Include/ImagePng.h **** 
 1919              		.loc 2 32 13 view .LVU545
 1920              	.LBE846:
 1921              	.LBE873:
 195:../../Include/ImagePng.h **** 
 1922              		.loc 2 195 13 is_stmt 1 view .LVU546
 195:../../Include/ImagePng.h **** 
 1923              		.loc 2 195 74 is_stmt 0 view .LVU547
 1924 0b0c 000280D2 		mov	x0, 16
 1925 0b10 00000094 		bl	__cxa_allocate_exception
 1926              	.LVL171:
 195:../../Include/ImagePng.h **** 
 1927              		.loc 2 195 13 view .LVU548
 1928 0b14 01000090 		adrp	x1, .LC14
 195:../../Include/ImagePng.h **** 
 1929              		.loc 2 195 74 view .LVU549
 1930 0b18 F30300AA 		mov	x19, x0
 195:../../Include/ImagePng.h **** 
 1931              		.loc 2 195 13 view .LVU550
 1932 0b1c 21000091 		add	x1, x1, :lo12:.LC14
 1933              	.LEHB16:
 1934 0b20 00000094 		bl	_ZNSt13runtime_errorC1EPKc
 1935              	.LVL172:
 1936              	.LEHE16:
 1937 0b24 DFFFFF17 		b	.L132
 1938              	.LVL173:
 1939              	.L123:
 195:../../Include/ImagePng.h **** 
 1940              		.loc 2 195 13 view .LVU551
 1941 0b28 EBFFFF17 		b	.L131
 1942              	.LVL174:
 1943              	.L119:
 195:../../Include/ImagePng.h **** 
 1944              		.loc 2 195 13 view .LVU552
 1945 0b2c EAFFFF17 		b	.L131
 1946              	.LVL175:
AARCH64 GAS  obj/Ch15_05.s 			page 49


 1947              	.L135:
 192:../../Include/ImagePng.h **** 
 1948              		.loc 2 192 13 is_stmt 1 view .LVU553
 192:../../Include/ImagePng.h **** 
 1949              		.loc 2 192 90 is_stmt 0 view .LVU554
 1950 0b30 000280D2 		mov	x0, 16
 1951 0b34 00000094 		bl	__cxa_allocate_exception
 1952              	.LVL176:
 192:../../Include/ImagePng.h **** 
 1953              		.loc 2 192 13 view .LVU555
 1954 0b38 01000090 		adrp	x1, .LC13
 192:../../Include/ImagePng.h **** 
 1955              		.loc 2 192 90 view .LVU556
 1956 0b3c F30300AA 		mov	x19, x0
 1957              	.LVL177:
 192:../../Include/ImagePng.h **** 
 1958              		.loc 2 192 13 view .LVU557
 1959 0b40 21000091 		add	x1, x1, :lo12:.LC13
 1960              	.LEHB17:
 1961 0b44 00000094 		bl	_ZNSt13runtime_errorC1EPKc
 1962              	.LVL178:
 1963              	.LEHE17:
 1964 0b48 D6FFFF17 		b	.L132
 1965              	.LVL179:
 1966              	.L134:
 187:../../Include/ImagePng.h **** 
 1967              		.loc 2 187 13 is_stmt 1 view .LVU558
 187:../../Include/ImagePng.h **** 
 1968              		.loc 2 187 91 is_stmt 0 view .LVU559
 1969 0b4c 000280D2 		mov	x0, 16
 1970 0b50 00000094 		bl	__cxa_allocate_exception
 1971              	.LVL180:
 187:../../Include/ImagePng.h **** 
 1972              		.loc 2 187 13 view .LVU560
 1973 0b54 01000090 		adrp	x1, .LC12
 187:../../Include/ImagePng.h **** 
 1974              		.loc 2 187 91 view .LVU561
 1975 0b58 F30300AA 		mov	x19, x0
 1976              	.LVL181:
 187:../../Include/ImagePng.h **** 
 1977              		.loc 2 187 13 view .LVU562
 1978 0b5c 21000091 		add	x1, x1, :lo12:.LC12
 1979              	.LEHB18:
 1980 0b60 00000094 		bl	_ZNSt13runtime_errorC1EPKc
 1981              	.LVL182:
 1982              	.LEHE18:
 1983 0b64 CFFFFF17 		b	.L132
 1984              	.L120:
 1985 0b68 DBFFFF17 		b	.L131
 1986              	.L121:
 1987 0b6c DAFFFF17 		b	.L131
 1988              		.cfi_endproc
 1989              	.LFE2178:
 1990              		.section	.gcc_except_table
 1991              	.LLSDA2178:
 1992 003d FF       		.byte	0xff
 1993 003e FF       		.byte	0xff
AARCH64 GAS  obj/Ch15_05.s 			page 50


 1994 003f 01       		.byte	0x1
 1995 0040 33       		.uleb128 .LLSDACSE2178-.LLSDACSB2178
 1996              	.LLSDACSB2178:
 1997 0041 2C       		.uleb128 .LEHB10-.LFB2178
 1998 0042 B804     		.uleb128 .LEHE10-.LEHB10
 1999 0044 00       		.uleb128 0
 2000 0045 00       		.uleb128 0
 2001 0046 8C05     		.uleb128 .LEHB11-.LFB2178
 2002 0048 04       		.uleb128 .LEHE11-.LEHB11
 2003 0049 C405     		.uleb128 .L122-.LFB2178
 2004 004b 00       		.uleb128 0
 2005 004c A405     		.uleb128 .LEHB12-.LFB2178
 2006 004e 04       		.uleb128 .LEHE12-.LEHB12
 2007 004f 00       		.uleb128 0
 2008 0050 00       		.uleb128 0
 2009 0051 BC05     		.uleb128 .LEHB13-.LFB2178
 2010 0053 04       		.uleb128 .LEHE13-.LEHB13
 2011 0054 DC05     		.uleb128 .L124-.LFB2178
 2012 0056 00       		.uleb128 0
 2013 0057 D805     		.uleb128 .LEHB14-.LFB2178
 2014 0059 04       		.uleb128 .LEHE14-.LEHB14
 2015 005a 00       		.uleb128 0
 2016 005b 00       		.uleb128 0
 2017 005c F405     		.uleb128 .LEHB15-.LFB2178
 2018 005e 04       		.uleb128 .LEHE15-.LEHB15
 2019 005f 9806     		.uleb128 .L123-.LFB2178
 2020 0061 00       		.uleb128 0
 2021 0062 9006     		.uleb128 .LEHB16-.LFB2178
 2022 0064 04       		.uleb128 .LEHE16-.LEHB16
 2023 0065 9C06     		.uleb128 .L119-.LFB2178
 2024 0067 00       		.uleb128 0
 2025 0068 B406     		.uleb128 .LEHB17-.LFB2178
 2026 006a 04       		.uleb128 .LEHE17-.LEHB17
 2027 006b D806     		.uleb128 .L120-.LFB2178
 2028 006d 00       		.uleb128 0
 2029 006e D006     		.uleb128 .LEHB18-.LFB2178
 2030 0070 04       		.uleb128 .LEHE18-.LEHB18
 2031 0071 DC06     		.uleb128 .L121-.LFB2178
 2032 0073 00       		.uleb128 0
 2033              	.LLSDACSE2178:
 2034              		.text
 2035              		.size	_ZN8ImagePng9SaveImageERKNSt7__cxx1112basic_stringIcSt11char_traitsIcESaIcEEEPKhii.isra.0, .
 2036              		.align	2
 2037              		.p2align 4,,11
 2038              		.global	_Z15CompareGsImagesPKhS0_m
 2039              		.type	_Z15CompareGsImagesPKhS0_m, %function
 2040              	_Z15CompareGsImagesPKhS0_m:
 2041              	.LVL183:
 2042              	.LFB1650:
  22:Ch15_05.cpp   ****     for (size_t i = 0; i < num_pixels; i++)
 2043              		.loc 1 22 1 is_stmt 1 view -0
 2044              		.cfi_startproc
  23:Ch15_05.cpp   ****     {
 2045              		.loc 1 23 5 view .LVU564
 2046              	.LBB874:
  23:Ch15_05.cpp   ****     {
 2047              		.loc 1 23 26 view .LVU565
AARCH64 GAS  obj/Ch15_05.s 			page 51


 2048 0b70 C20100B4 		cbz	x2, .L143
  23:Ch15_05.cpp   ****     {
 2049              		.loc 1 23 17 is_stmt 0 view .LVU566
 2050 0b74 040080D2 		mov	x4, 0
 2051 0b78 03000014 		b	.L142
 2052              	.LVL184:
 2053              		.p2align 2,,3
 2054              	.L146:
  23:Ch15_05.cpp   ****     {
 2055              		.loc 1 23 26 discriminator 2 view .LVU567
 2056 0b7c 5F0004EB 		cmp	x2, x4
 2057 0b80 40010054 		beq	.L143
 2058              	.LVL185:
 2059              	.L142:
  25:Ch15_05.cpp   ****             return false;
 2060              		.loc 1 25 9 is_stmt 1 view .LVU568
  23:Ch15_05.cpp   ****     {
 2061              		.loc 1 23 5 view .LVU569
  25:Ch15_05.cpp   ****             return false;
 2062              		.loc 1 25 17 is_stmt 0 view .LVU570
 2063 0b84 03686438 		ldrb	w3, [x0, x4]
  25:Ch15_05.cpp   ****             return false;
 2064              		.loc 1 25 34 view .LVU571
 2065 0b88 25686438 		ldrb	w5, [x1, x4]
  23:Ch15_05.cpp   ****     {
 2066              		.loc 1 23 5 view .LVU572
 2067 0b8c 84040091 		add	x4, x4, 1
 2068              	.LVL186:
  23:Ch15_05.cpp   ****     {
 2069              		.loc 1 23 26 is_stmt 1 view .LVU573
  25:Ch15_05.cpp   ****             return false;
 2070              		.loc 1 25 16 is_stmt 0 view .LVU574
 2071 0b90 6300056B 		subs	w3, w3, w5
 2072 0b94 6354835A 		csneg	w3, w3, w3, pl
  25:Ch15_05.cpp   ****             return false;
 2073              		.loc 1 25 9 view .LVU575
 2074 0b98 7F040071 		cmp	w3, 1
 2075 0b9c 0DFFFF54 		ble	.L146
  26:Ch15_05.cpp   ****     }
 2076              		.loc 1 26 20 view .LVU576
 2077 0ba0 00008052 		mov	w0, 0
 2078              	.LVL187:
  26:Ch15_05.cpp   ****     }
 2079              		.loc 1 26 20 view .LVU577
 2080              	.LBE874:
  30:Ch15_05.cpp   **** 
 2081              		.loc 1 30 1 view .LVU578
 2082 0ba4 C0035FD6 		ret
 2083              	.LVL188:
 2084              		.p2align 2,,3
 2085              	.L143:
  29:Ch15_05.cpp   **** }
 2086              		.loc 1 29 12 view .LVU579
 2087 0ba8 20008052 		mov	w0, 1
 2088              	.LVL189:
  30:Ch15_05.cpp   **** 
 2089              		.loc 1 30 1 view .LVU580
AARCH64 GAS  obj/Ch15_05.s 			page 52


 2090 0bac C0035FD6 		ret
 2091              		.cfi_endproc
 2092              	.LFE1650:
 2093              		.size	_Z15CompareGsImagesPKhS0_m, .-_Z15CompareGsImagesPKhS0_m
 2094              		.align	2
 2095              		.p2align 4,,11
 2096              		.global	_Z17ConvertRgbToGsCppPhPK5RGB32mPKf
 2097              		.type	_Z17ConvertRgbToGsCppPhPK5RGB32mPKf, %function
 2098              	_Z17ConvertRgbToGsCppPhPK5RGB32mPKf:
 2099              	.LVL190:
 2100              	.LFB1651:
  33:Ch15_05.cpp   ****     if (num_pixels < g_NumPixelsMin || num_pixels > g_NumPixelsMax)
 2101              		.loc 1 33 1 is_stmt 1 view -0
 2102              		.cfi_startproc
  34:Ch15_05.cpp   ****         return false;
 2103              		.loc 1 34 5 view .LVU582
  34:Ch15_05.cpp   ****         return false;
 2104              		.loc 1 34 20 is_stmt 0 view .LVU583
 2105 0bb0 04000090 		adrp	x4, .LANCHOR0
  33:Ch15_05.cpp   ****     if (num_pixels < g_NumPixelsMin || num_pixels > g_NumPixelsMax)
 2106              		.loc 1 33 1 view .LVU584
 2107 0bb4 E50300AA 		mov	x5, x0
  35:Ch15_05.cpp   **** 
 2108              		.loc 1 35 16 view .LVU585
 2109 0bb8 00008052 		mov	w0, 0
 2110              	.LVL191:
  34:Ch15_05.cpp   ****         return false;
 2111              		.loc 1 34 5 view .LVU586
 2112 0bbc 860040F9 		ldr	x6, [x4, #:lo12:.LANCHOR0]
  34:Ch15_05.cpp   ****         return false;
 2113              		.loc 1 34 20 view .LVU587
 2114 0bc0 84000091 		add	x4, x4, :lo12:.LANCHOR0
  34:Ch15_05.cpp   ****         return false;
 2115              		.loc 1 34 5 view .LVU588
 2116 0bc4 DF0002EB 		cmp	x6, x2
 2117 0bc8 68150054 		bhi	.L148
  34:Ch15_05.cpp   ****         return false;
 2118              		.loc 1 34 37 discriminator 1 view .LVU589
 2119 0bcc 840440F9 		ldr	x4, [x4, 8]
  35:Ch15_05.cpp   **** 
 2120              		.loc 1 35 16 discriminator 1 view .LVU590
 2121 0bd0 00008052 		mov	w0, 0
  34:Ch15_05.cpp   ****         return false;
 2122              		.loc 1 34 37 discriminator 1 view .LVU591
 2123 0bd4 9F0002EB 		cmp	x4, x2
 2124 0bd8 E3140054 		bcc	.L148
  37:Ch15_05.cpp   ****         return false;
 2125              		.loc 1 37 5 is_stmt 1 view .LVU592
  40:Ch15_05.cpp   ****         return false;
 2126              		.loc 1 40 5 view .LVU593
 2127              	.LVL192:
 2128              	.LBB888:
 2129              	.LBI888:
 2130              		.file 3 "../../Include/AlignedMem.h"
   1:../../Include/AlignedMem.h **** #pragma once
   2:../../Include/AlignedMem.h **** #include <cstdint>
   3:../../Include/AlignedMem.h **** #include <stdexcept>
AARCH64 GAS  obj/Ch15_05.s 			page 53


   4:../../Include/AlignedMem.h **** #include "OS.h"
   5:../../Include/AlignedMem.h **** 
   6:../../Include/AlignedMem.h **** class AlignedMem
   7:../../Include/AlignedMem.h **** {
   8:../../Include/AlignedMem.h **** public:
   9:../../Include/AlignedMem.h ****     static void* Allocate(size_t mem_size, size_t mem_alignment)
  10:../../Include/AlignedMem.h ****     {
  11:../../Include/AlignedMem.h ****         void* p = OS::AlignedMalloc(mem_size, mem_alignment);
  12:../../Include/AlignedMem.h **** 
  13:../../Include/AlignedMem.h ****         if (p == nullptr)
  14:../../Include/AlignedMem.h ****             throw std::runtime_error("Memory allocation error: AllocateAlignedMem()");
  15:../../Include/AlignedMem.h **** 
  16:../../Include/AlignedMem.h ****         return p;
  17:../../Include/AlignedMem.h ****     }
  18:../../Include/AlignedMem.h **** 
  19:../../Include/AlignedMem.h ****     static void Release(void* p)
  20:../../Include/AlignedMem.h ****     {
  21:../../Include/AlignedMem.h ****         OS::AlignedFree(p);
  22:../../Include/AlignedMem.h ****     }
  23:../../Include/AlignedMem.h **** 
  24:../../Include/AlignedMem.h ****     template <typename T> static bool IsAligned(const T* p, size_t alignment)
 2131              		.loc 3 24 39 view .LVU594
 2132              	.LBB889:
  25:../../Include/AlignedMem.h ****     {
  26:../../Include/AlignedMem.h ****         if (p == nullptr)
 2133              		.loc 3 26 9 is_stmt 0 view .LVU595
 2134 0bdc C51400B4 		cbz	x5, .L148
 2135              	.LVL193:
 2136              		.loc 3 26 9 view .LVU596
 2137              	.LBE889:
 2138              	.LBE888:
  42:Ch15_05.cpp   ****         return false;
 2139              		.loc 1 42 5 is_stmt 1 view .LVU597
 2140              	.LBB891:
 2141              	.LBI891:
  24:../../Include/AlignedMem.h ****     {
 2142              		.loc 3 24 39 view .LVU598
 2143              	.LBB892:
 2144              		.loc 3 26 9 is_stmt 0 view .LVU599
 2145 0be0 A11400B4 		cbz	x1, .L148
  27:../../Include/AlignedMem.h ****             return false;
  28:../../Include/AlignedMem.h **** 
  29:../../Include/AlignedMem.h ****         if (((uintptr_t)p % alignment) != 0)
 2146              		.loc 3 29 9 view .LVU600
 2147 0be4 440005AA 		orr	x4, x2, x5
 2148              		.loc 3 29 27 view .LVU601
 2149 0be8 E60301AA 		mov	x6, x1
 2150              		.loc 3 29 9 view .LVU602
 2151 0bec 840001AA 		orr	x4, x4, x1
 2152              	.LBE892:
 2153              	.LBE891:
 2154              	.LBB894:
 2155              	.LBB890:
 2156              		.loc 3 29 27 view .LVU603
 2157 0bf0 E70305AA 		mov	x7, x5
 2158              	.LBE890:
 2159              	.LBE894:
AARCH64 GAS  obj/Ch15_05.s 			page 54


 2160              	.LBB895:
 2161              	.LBB893:
 2162              		.loc 3 29 9 view .LVU604
 2163 0bf4 9F0C40F2 		tst	x4, 15
 2164 0bf8 E1130054 		bne	.L148
 2165              	.LVL194:
 2166              		.loc 3 29 9 view .LVU605
 2167              	.LBE893:
 2168              	.LBE895:
 2169              	.LBB896:
 2170              	.LBB897:
  45:Ch15_05.cpp   ****     {
 2171              		.loc 1 45 26 is_stmt 1 view .LVU606
 2172 0bfc A21300B4 		cbz	x2, .L154
 2173 0c00 60300091 		add	x0, x3, 12
 2174 0c04 440400D1 		sub	x4, x2, #1
 2175 0c08 BF0000EB 		cmp	x5, x0
 2176 0c0c A800028B 		add	x8, x5, x2
 2177 0c10 623048FA 		ccmp	x3, x8, 2, cc
 2178 0c14 2008048B 		add	x0, x1, x4, lsl 2
 2179 0c18 80284FFA 		ccmp	x4, 15, 0, cs
 2180 0c1c 000C0091 		add	x0, x0, 3
 2181 0c20 E9979F1A 		cset	w9, hi
 2182 0c24 BF0000EB 		cmp	x5, x0
 2183 0c28 223048FA 		ccmp	x1, x8, 2, cc
 2184 0c2c E0379F1A 		cset	w0, cs
 2185 0c30 3F01006A 		tst	w9, w0
 2186 0c34 20120054 		beq	.L150
 2187 0c38 6590402D 		ldp	s5, s4, [x3, 4]
 2188              	.LBB898:
  55:Ch15_05.cpp   ****             gs_temp = 255.0f;
 2189              		.loc 1 55 14 is_stmt 0 view .LVU607
 2190 0c3c 08000090 		adrp	x8, .LC0
 2191 0c40 80FC44D3 		lsr	x0, x4, 4
 2192 0c44 67C8404D 		ld1r	{v7.4s}, [x3]
  51:Ch15_05.cpp   **** 
 2193              		.loc 1 51 15 view .LVU608
 2194 0c48 10F4034F 		fmov	v16.4s, 5.0e-1
  55:Ch15_05.cpp   ****             gs_temp = 255.0f;
 2195              		.loc 1 55 14 view .LVU609
 2196 0c4c 0601C03D 		ldr	q6, [x8, #:lo12:.LC0]
 2197 0c50 2018008B 		add	x0, x1, x0, lsl 6
  58:Ch15_05.cpp   ****     }
 2198              		.loc 1 58 18 view .LVU610
 2199 0c54 1104006F 		mvni	v17.4s, 0
 2200 0c58 A504044E 		dup	v5.4s, v5.s[0]
 2201 0c5c 8404044E 		dup	v4.4s, v4.s[0]
 2202              	.LVL195:
 2203              		.p2align 3,,7
 2204              	.L151:
  47:Ch15_05.cpp   ****         uint8_t g = pb_rgb[i].m_G;
 2205              		.loc 1 47 9 is_stmt 1 view .LVU611
  47:Ch15_05.cpp   ****         uint8_t g = pb_rgb[i].m_G;
 2206              		.loc 1 47 17 is_stmt 0 view .LVU612
 2207 0c60 D800DF4C 		ld4	{v24.16b - v27.16b}, [x6], 64
  48:Ch15_05.cpp   ****         uint8_t b = pb_rgb[i].m_B;
 2208              		.loc 1 48 9 is_stmt 1 view .LVU613
AARCH64 GAS  obj/Ch15_05.s 			page 55


  49:Ch15_05.cpp   **** 
 2209              		.loc 1 49 9 view .LVU614
  51:Ch15_05.cpp   **** 
 2210              		.loc 1 51 9 view .LVU615
  51:Ch15_05.cpp   **** 
 2211              		.loc 1 51 39 is_stmt 0 view .LVU616
 2212 0c64 21A7082F 		uxtl	v1.8h, v25.8b
 2213 0c68 20A7086F 		uxtl2	v0.8h, v25.16b
  51:Ch15_05.cpp   **** 
 2214              		.loc 1 51 25 view .LVU617
 2215 0c6c 12A7082F 		uxtl	v18.8h, v24.8b
 2216 0c70 14A7086F 		uxtl2	v20.8h, v24.16b
  51:Ch15_05.cpp   **** 
 2217              		.loc 1 51 39 view .LVU618
 2218 0c74 23A4106F 		uxtl2	v3.4s, v1.8h
 2219 0c78 02A4102F 		uxtl	v2.4s, v0.4h
 2220 0c7c 21A4102F 		uxtl	v1.4s, v1.4h
 2221 0c80 00A4106F 		uxtl2	v0.4s, v0.8h
  51:Ch15_05.cpp   **** 
 2222              		.loc 1 51 25 view .LVU619
 2223 0c84 56A6102F 		uxtl	v22.4s, v18.4h
  51:Ch15_05.cpp   **** 
 2224              		.loc 1 51 53 view .LVU620
 2225 0c88 53A7082F 		uxtl	v19.8h, v26.8b
  51:Ch15_05.cpp   **** 
 2226              		.loc 1 51 25 view .LVU621
 2227 0c8c 55A6106F 		uxtl2	v21.4s, v18.8h
 2228 0c90 98A6102F 		uxtl	v24.4s, v20.4h
  51:Ch15_05.cpp   **** 
 2229              		.loc 1 51 53 view .LVU622
 2230 0c94 52A7086F 		uxtl2	v18.8h, v26.16b
  51:Ch15_05.cpp   **** 
 2231              		.loc 1 51 41 view .LVU623
 2232 0c98 63D8214E 		scvtf	v3.4s, v3.4s
 2233 0c9c 21D8214E 		scvtf	v1.4s, v1.4s
 2234 0ca0 42D8214E 		scvtf	v2.4s, v2.4s
 2235 0ca4 00D8214E 		scvtf	v0.4s, v0.4s
  51:Ch15_05.cpp   **** 
 2236              		.loc 1 51 25 view .LVU624
 2237 0ca8 94A6106F 		uxtl2	v20.4s, v20.8h
  51:Ch15_05.cpp   **** 
 2238              		.loc 1 51 27 view .LVU625
 2239 0cac D9DA214E 		scvtf	v25.4s, v22.4s
  51:Ch15_05.cpp   **** 
 2240              		.loc 1 51 53 view .LVU626
 2241 0cb0 77A6102F 		uxtl	v23.4s, v19.4h
 2242 0cb4 56A6102F 		uxtl	v22.4s, v18.4h
  51:Ch15_05.cpp   **** 
 2243              		.loc 1 51 27 view .LVU627
 2244 0cb8 B5DA214E 		scvtf	v21.4s, v21.4s
 2245 0cbc 18DB214E 		scvtf	v24.4s, v24.4s
 2246 0cc0 94DA214E 		scvtf	v20.4s, v20.4s
  51:Ch15_05.cpp   **** 
 2247              		.loc 1 51 41 view .LVU628
 2248 0cc4 63DC256E 		fmul	v3.4s, v3.4s, v5.4s
 2249 0cc8 21DC256E 		fmul	v1.4s, v1.4s, v5.4s
  51:Ch15_05.cpp   **** 
AARCH64 GAS  obj/Ch15_05.s 			page 56


 2250              		.loc 1 51 53 view .LVU629
 2251 0ccc 73A6106F 		uxtl2	v19.4s, v19.8h
  51:Ch15_05.cpp   **** 
 2252              		.loc 1 51 41 view .LVU630
 2253 0cd0 42DC256E 		fmul	v2.4s, v2.4s, v5.4s
 2254 0cd4 00DC256E 		fmul	v0.4s, v0.4s, v5.4s
  51:Ch15_05.cpp   **** 
 2255              		.loc 1 51 53 view .LVU631
 2256 0cd8 52A6106F 		uxtl2	v18.4s, v18.8h
  51:Ch15_05.cpp   **** 
 2257              		.loc 1 51 37 view .LVU632
 2258 0cdc 21CF274E 		fmla	v1.4s, v25.4s, v7.4s
 2259 0ce0 A3CE274E 		fmla	v3.4s, v21.4s, v7.4s
  51:Ch15_05.cpp   **** 
 2260              		.loc 1 51 55 view .LVU633
 2261 0ce4 73DA214E 		scvtf	v19.4s, v19.4s
 2262 0ce8 F5DA214E 		scvtf	v21.4s, v23.4s
  51:Ch15_05.cpp   **** 
 2263              		.loc 1 51 37 view .LVU634
 2264 0cec 02CF274E 		fmla	v2.4s, v24.4s, v7.4s
 2265 0cf0 80CE274E 		fmla	v0.4s, v20.4s, v7.4s
  51:Ch15_05.cpp   **** 
 2266              		.loc 1 51 55 view .LVU635
 2267 0cf4 52DA214E 		scvtf	v18.4s, v18.4s
 2268 0cf8 D4DA214E 		scvtf	v20.4s, v22.4s
  51:Ch15_05.cpp   **** 
 2269              		.loc 1 51 51 view .LVU636
 2270 0cfc A1CE244E 		fmla	v1.4s, v21.4s, v4.4s
 2271 0d00 63CE244E 		fmla	v3.4s, v19.4s, v4.4s
 2272 0d04 40CE244E 		fmla	v0.4s, v18.4s, v4.4s
 2273 0d08 82CE244E 		fmla	v2.4s, v20.4s, v4.4s
  51:Ch15_05.cpp   **** 
 2274              		.loc 1 51 15 view .LVU637
 2275 0d0c 21D4304E 		fadd	v1.4s, v1.4s, v16.4s
 2276 0d10 63D4304E 		fadd	v3.4s, v3.4s, v16.4s
 2277 0d14 00D4304E 		fadd	v0.4s, v0.4s, v16.4s
  53:Ch15_05.cpp   ****             gs_temp = 0.0f;
 2278              		.loc 1 53 9 is_stmt 1 view .LVU638
  55:Ch15_05.cpp   ****             gs_temp = 255.0f;
 2279              		.loc 1 55 14 view .LVU639
  51:Ch15_05.cpp   **** 
 2280              		.loc 1 51 15 is_stmt 0 view .LVU640
 2281 0d18 42D4304E 		fadd	v2.4s, v2.4s, v16.4s
  53:Ch15_05.cpp   ****             gs_temp = 0.0f;
 2282              		.loc 1 53 9 view .LVU641
 2283 0d1c 34E8A04E 		fcmlt	v20.4s, v1.4s, 0
 2284 0d20 73E8A04E 		fcmlt	v19.4s, v3.4s, 0
 2285 0d24 15E8A04E 		fcmlt	v21.4s, v0.4s, 0
 2286 0d28 52E8A04E 		fcmlt	v18.4s, v2.4s, 0
  55:Ch15_05.cpp   ****             gs_temp = 255.0f;
 2287              		.loc 1 55 14 view .LVU642
 2288 0d2c 36E4A66E 		fcmgt	v22.4s, v1.4s, v6.4s
 2289 0d30 77E4A66E 		fcmgt	v23.4s, v3.4s, v6.4s
  58:Ch15_05.cpp   ****     }
 2290              		.loc 1 58 18 view .LVU643
 2291 0d34 9C2A610E 		xtn	v28.4h, v20.4s
 2292 0d38 7C2A614E 		xtn2	v28.8h, v19.4s
AARCH64 GAS  obj/Ch15_05.s 			page 57


  55:Ch15_05.cpp   ****             gs_temp = 255.0f;
 2293              		.loc 1 55 14 view .LVU644
 2294 0d3c 5BE4A66E 		fcmgt	v27.4s, v2.4s, v6.4s
 2295 0d40 1AE4A66E 		fcmgt	v26.4s, v0.4s, v6.4s
  58:Ch15_05.cpp   ****     }
 2296              		.loc 1 58 18 view .LVU645
 2297 0d44 582A610E 		xtn	v24.4h, v18.4s
 2298 0d48 B82A614E 		xtn2	v24.8h, v21.4s
  58:Ch15_05.cpp   ****     }
 2299              		.loc 1 58 20 view .LVU646
 2300 0d4c 21B8A14E 		fcvtzs	v1.4s, v1.4s
 2301 0d50 63B8A14E 		fcvtzs	v3.4s, v3.4s
  58:Ch15_05.cpp   ****     }
 2302              		.loc 1 58 18 view .LVU647
 2303 0d54 991EB64E 		orr	v25.16b, v20.16b, v22.16b
  58:Ch15_05.cpp   ****     }
 2304              		.loc 1 58 20 view .LVU648
 2305 0d58 42B8A14E 		fcvtzs	v2.4s, v2.4s
  58:Ch15_05.cpp   ****     }
 2306              		.loc 1 58 18 view .LVU649
 2307 0d5c D41E744E 		bic	v20.16b, v22.16b, v20.16b
 2308 0d60 962B210E 		xtn	v22.8b, v28.8h
 2309 0d64 162B214E 		xtn2	v22.16b, v24.8h
  58:Ch15_05.cpp   ****     }
 2310              		.loc 1 58 20 view .LVU650
 2311 0d68 00B8A14E 		fcvtzs	v0.4s, v0.4s
 2312 0d6c 3C28610E 		xtn	v28.4h, v1.4s
 2313 0d70 7C28614E 		xtn2	v28.8h, v3.4s
  58:Ch15_05.cpp   ****     }
 2314              		.loc 1 58 18 view .LVU651
 2315 0d74 781EB74E 		orr	v24.16b, v19.16b, v23.16b
 2316 0d78 411F754E 		bic	v1.16b, v26.16b, v21.16b
 2317 0d7c F31E734E 		bic	v19.16b, v23.16b, v19.16b
 2318 0d80 A31EBA4E 		orr	v3.16b, v21.16b, v26.16b
 2319 0d84 571EBB4E 		orr	v23.16b, v18.16b, v27.16b
 2320 0d88 721F724E 		bic	v18.16b, v27.16b, v18.16b
 2321 0d8c 355B206E 		not	v21.16b, v25.16b
 2322 0d90 9B2A610E 		xtn	v27.4h, v20.4s
 2323 0d94 7B2A614E 		xtn2	v27.8h, v19.4s
 2324 0d98 6358206E 		not	v3.16b, v3.16b
 2325 0d9c 145B206E 		not	v20.16b, v24.16b
  58:Ch15_05.cpp   ****     }
 2326              		.loc 1 58 20 view .LVU652
 2327 0da0 5828610E 		xtn	v24.4h, v2.4s
 2328 0da4 1828614E 		xtn2	v24.8h, v0.4s
  58:Ch15_05.cpp   ****     }
 2329              		.loc 1 58 18 view .LVU653
 2330 0da8 F35A206E 		not	v19.16b, v23.16b
 2331 0dac 572A610E 		xtn	v23.4h, v18.4s
 2332 0db0 3728614E 		xtn2	v23.8h, v1.4s
  58:Ch15_05.cpp   ****     }
 2333              		.loc 1 58 20 view .LVU654
 2334 0db4 822B210E 		xtn	v2.8b, v28.8h
 2335 0db8 022B214E 		xtn2	v2.16b, v24.8h
  58:Ch15_05.cpp   ****     }
 2336              		.loc 1 58 9 is_stmt 1 view .LVU655
  58:Ch15_05.cpp   ****     }
AARCH64 GAS  obj/Ch15_05.s 			page 58


 2337              		.loc 1 58 18 is_stmt 0 view .LVU656
 2338 0dbc 602B210E 		xtn	v0.8b, v27.8h
 2339 0dc0 E02A214E 		xtn2	v0.16b, v23.8h
 2340 0dc4 B72A610E 		xtn	v23.4h, v21.4s
 2341 0dc8 972A614E 		xtn2	v23.8h, v20.4s
 2342 0dcc 201E626E 		bsl	v0.16b, v17.16b, v2.16b
 2343 0dd0 722A610E 		xtn	v18.4h, v19.4s
 2344 0dd4 7228614E 		xtn2	v18.8h, v3.4s
 2345 0dd8 E12A210E 		xtn	v1.8b, v23.8h
 2346 0ddc 412A214E 		xtn2	v1.16b, v18.8h
 2347 0de0 401CA16E 		bit	v0.16b, v2.16b, v1.16b
 2348 0de4 001C764E 		bic	v0.16b, v0.16b, v22.16b
 2349 0de8 E004813C 		str	q0, [x7], 16
 2350              	.LBE898:
  45:Ch15_05.cpp   ****     {
 2351              		.loc 1 45 5 is_stmt 1 view .LVU657
  45:Ch15_05.cpp   ****     {
 2352              		.loc 1 45 26 view .LVU658
 2353 0dec DF0000EB 		cmp	x6, x0
 2354 0df0 81F3FF54 		bne	.L151
 2355 0df4 84EC7C92 		and	x4, x4, -16
 2356              	.LBB899:
  55:Ch15_05.cpp   ****             gs_temp = 255.0f;
 2357              		.loc 1 55 14 is_stmt 0 view .LVU659
 2358 0df8 E06FA852 		mov	w0, 1132396544
  51:Ch15_05.cpp   **** 
 2359              		.loc 1 51 15 view .LVU660
 2360 0dfc 06102C1E 		fmov	s6, 5.0e-1
  55:Ch15_05.cpp   ****             gs_temp = 255.0f;
 2361              		.loc 1 55 14 view .LVU661
 2362 0e00 0700271E 		fmov	s7, w0
 2363 0e04 2108048B 		add	x1, x1, x4, lsl 2
 2364              	.LVL196:
  58:Ch15_05.cpp   ****     }
 2365              		.loc 1 58 20 view .LVU662
 2366 0e08 E61F8052 		mov	w6, 255
 2367 0e0c 1F2003D5 		.p2align 3,,7
 2368              	.L155:
 2369              	.LVL197:
  47:Ch15_05.cpp   ****         uint8_t g = pb_rgb[i].m_G;
 2370              		.loc 1 47 9 is_stmt 1 view .LVU663
  48:Ch15_05.cpp   ****         uint8_t b = pb_rgb[i].m_B;
 2371              		.loc 1 48 9 view .LVU664
  49:Ch15_05.cpp   **** 
 2372              		.loc 1 49 9 view .LVU665
  51:Ch15_05.cpp   **** 
 2373              		.loc 1 51 9 view .LVU666
  51:Ch15_05.cpp   **** 
 2374              		.loc 1 51 39 is_stmt 0 view .LVU667
 2375 0e10 2104403D 		ldr	b1, [x1, 1]
  53:Ch15_05.cpp   ****             gs_temp = 0.0f;
 2376              		.loc 1 53 9 view .LVU668
 2377 0e14 00008052 		mov	w0, 0
  51:Ch15_05.cpp   **** 
 2378              		.loc 1 51 25 view .LVU669
 2379 0e18 2300403D 		ldr	b3, [x1]
  51:Ch15_05.cpp   **** 
AARCH64 GAS  obj/Ch15_05.s 			page 59


 2380              		.loc 1 51 41 view .LVU670
 2381 0e1c 6500402D 		ldp	s5, s0, [x3]
 2382 0e20 21D8215E 		scvtf	s1, s1
  51:Ch15_05.cpp   **** 
 2383              		.loc 1 51 27 view .LVU671
 2384 0e24 63D8215E 		scvtf	s3, s3
  51:Ch15_05.cpp   **** 
 2385              		.loc 1 51 53 view .LVU672
 2386 0e28 2208403D 		ldr	b2, [x1, 2]
  51:Ch15_05.cpp   **** 
 2387              		.loc 1 51 51 view .LVU673
 2388 0e2c 640840BD 		ldr	s4, [x3, 8]
  51:Ch15_05.cpp   **** 
 2389              		.loc 1 51 41 view .LVU674
 2390 0e30 2008201E 		fmul	s0, s1, s0
  51:Ch15_05.cpp   **** 
 2391              		.loc 1 51 55 view .LVU675
 2392 0e34 42D8215E 		scvtf	s2, s2
  51:Ch15_05.cpp   **** 
 2393              		.loc 1 51 37 view .LVU676
 2394 0e38 6000051F 		fmadd	s0, s3, s5, s0
  51:Ch15_05.cpp   **** 
 2395              		.loc 1 51 51 view .LVU677
 2396 0e3c 4000041F 		fmadd	s0, s2, s4, s0
  51:Ch15_05.cpp   **** 
 2397              		.loc 1 51 15 view .LVU678
 2398 0e40 0028261E 		fadd	s0, s0, s6
 2399              	.LVL198:
  53:Ch15_05.cpp   ****             gs_temp = 0.0f;
 2400              		.loc 1 53 9 is_stmt 1 view .LVU679
 2401 0e44 1820201E 		fcmpe	s0, #0.0
 2402 0e48 A4000054 		bmi	.L156
  55:Ch15_05.cpp   ****             gs_temp = 255.0f;
 2403              		.loc 1 55 14 view .LVU680
  58:Ch15_05.cpp   ****     }
 2404              		.loc 1 58 20 is_stmt 0 view .LVU681
 2405 0e4c 0000391E 		fcvtzu	w0, s0
 2406 0e50 1020271E 		fcmpe	s0, s7
 2407 0e54 001C0012 		and	w0, w0, 255
 2408 0e58 C0C0801A 		csel	w0, w6, w0, gt
 2409              	.L156:
 2410              	.LVL199:
  58:Ch15_05.cpp   ****     }
 2411              		.loc 1 58 9 is_stmt 1 view .LVU682
  58:Ch15_05.cpp   ****     }
 2412              		.loc 1 58 18 is_stmt 0 view .LVU683
 2413 0e5c A0682438 		strb	w0, [x5, x4]
 2414              	.LVL200:
  58:Ch15_05.cpp   ****     }
 2415              		.loc 1 58 18 view .LVU684
 2416              	.LBE899:
  45:Ch15_05.cpp   ****     {
 2417              		.loc 1 45 5 is_stmt 1 view .LVU685
 2418 0e60 84040091 		add	x4, x4, 1
 2419              	.LVL201:
  45:Ch15_05.cpp   ****     {
 2420              		.loc 1 45 26 view .LVU686
AARCH64 GAS  obj/Ch15_05.s 			page 60


 2421 0e64 21100091 		add	x1, x1, 4
 2422 0e68 5F0004EB 		cmp	x2, x4
 2423 0e6c 28FDFF54 		bhi	.L155
 2424              	.LVL202:
 2425              	.L154:
 2426              	.LBB900:
  55:Ch15_05.cpp   ****             gs_temp = 255.0f;
 2427              		.loc 1 55 14 is_stmt 0 view .LVU687
 2428 0e70 20008052 		mov	w0, 1
 2429              	.LVL203:
 2430              	.L148:
  55:Ch15_05.cpp   ****             gs_temp = 255.0f;
 2431              		.loc 1 55 14 view .LVU688
 2432              	.LBE900:
 2433              	.LBE897:
 2434              	.LBE896:
  62:Ch15_05.cpp   **** 
 2435              		.loc 1 62 1 view .LVU689
 2436 0e74 C0035FD6 		ret
 2437              	.LVL204:
 2438              		.p2align 2,,3
 2439              	.L150:
  62:Ch15_05.cpp   **** 
 2440              		.loc 1 62 1 view .LVU690
 2441 0e78 2208028B 		add	x2, x1, x2, lsl 2
 2442              	.LVL205:
 2443              	.LBB905:
 2444              	.LBB904:
 2445              	.LBB901:
  55:Ch15_05.cpp   ****             gs_temp = 255.0f;
 2446              		.loc 1 55 14 view .LVU691
 2447 0e7c E06FA852 		mov	w0, 1132396544
  51:Ch15_05.cpp   **** 
 2448              		.loc 1 51 15 view .LVU692
 2449 0e80 07102C1E 		fmov	s7, 5.0e-1
  55:Ch15_05.cpp   ****             gs_temp = 255.0f;
 2450              		.loc 1 55 14 view .LVU693
 2451 0e84 0400271E 		fmov	s4, w0
  58:Ch15_05.cpp   ****     }
 2452              		.loc 1 58 20 view .LVU694
 2453 0e88 E41F8052 		mov	w4, 255
 2454              	.LVL206:
 2455              	.L158:
  47:Ch15_05.cpp   ****         uint8_t g = pb_rgb[i].m_G;
 2456              		.loc 1 47 9 is_stmt 1 view .LVU695
  48:Ch15_05.cpp   ****         uint8_t b = pb_rgb[i].m_B;
 2457              		.loc 1 48 9 view .LVU696
  49:Ch15_05.cpp   **** 
 2458              		.loc 1 49 9 view .LVU697
  51:Ch15_05.cpp   **** 
 2459              		.loc 1 51 9 view .LVU698
  55:Ch15_05.cpp   ****             gs_temp = 255.0f;
 2460              		.loc 1 55 14 view .LVU699
  58:Ch15_05.cpp   ****     }
 2461              		.loc 1 58 9 view .LVU700
  51:Ch15_05.cpp   **** 
 2462              		.loc 1 51 39 is_stmt 0 view .LVU701
AARCH64 GAS  obj/Ch15_05.s 			page 61


 2463 0e8c C104403D 		ldr	b1, [x6, 1]
  53:Ch15_05.cpp   ****             gs_temp = 0.0f;
 2464              		.loc 1 53 9 view .LVU702
 2465 0e90 01008052 		mov	w1, 0
  51:Ch15_05.cpp   **** 
 2466              		.loc 1 51 25 view .LVU703
 2467 0e94 C300403D 		ldr	b3, [x6]
 2468              	.LBE901:
  45:Ch15_05.cpp   ****     {
 2469              		.loc 1 45 26 view .LVU704
 2470 0e98 C6100091 		add	x6, x6, 4
 2471              	.LVL207:
 2472              	.LBB902:
  51:Ch15_05.cpp   **** 
 2473              		.loc 1 51 41 view .LVU705
 2474 0e9c 6600402D 		ldp	s6, s0, [x3]
 2475 0ea0 21D8215E 		scvtf	s1, s1
  51:Ch15_05.cpp   **** 
 2476              		.loc 1 51 27 view .LVU706
 2477 0ea4 63D8215E 		scvtf	s3, s3
  51:Ch15_05.cpp   **** 
 2478              		.loc 1 51 53 view .LVU707
 2479 0ea8 C2E05F3C 		ldr	b2, [x6, -2]
  51:Ch15_05.cpp   **** 
 2480              		.loc 1 51 51 view .LVU708
 2481 0eac 650840BD 		ldr	s5, [x3, 8]
  51:Ch15_05.cpp   **** 
 2482              		.loc 1 51 41 view .LVU709
 2483 0eb0 2008201E 		fmul	s0, s1, s0
  51:Ch15_05.cpp   **** 
 2484              		.loc 1 51 55 view .LVU710
 2485 0eb4 42D8215E 		scvtf	s2, s2
  51:Ch15_05.cpp   **** 
 2486              		.loc 1 51 37 view .LVU711
 2487 0eb8 C000031F 		fmadd	s0, s6, s3, s0
  51:Ch15_05.cpp   **** 
 2488              		.loc 1 51 51 view .LVU712
 2489 0ebc A000021F 		fmadd	s0, s5, s2, s0
  51:Ch15_05.cpp   **** 
 2490              		.loc 1 51 15 view .LVU713
 2491 0ec0 0028271E 		fadd	s0, s0, s7
 2492              	.LVL208:
  53:Ch15_05.cpp   ****             gs_temp = 0.0f;
 2493              		.loc 1 53 9 is_stmt 1 view .LVU714
  58:Ch15_05.cpp   ****     }
 2494              		.loc 1 58 20 is_stmt 0 view .LVU715
 2495 0ec4 0000391E 		fcvtzu	w0, s0
  53:Ch15_05.cpp   ****             gs_temp = 0.0f;
 2496              		.loc 1 53 9 view .LVU716
 2497 0ec8 1820201E 		fcmpe	s0, #0.0
  58:Ch15_05.cpp   ****     }
 2498              		.loc 1 58 20 view .LVU717
 2499 0ecc 001C0012 		and	w0, w0, 255
  53:Ch15_05.cpp   ****             gs_temp = 0.0f;
 2500              		.loc 1 53 9 view .LVU718
 2501 0ed0 64000054 		bmi	.L157
  58:Ch15_05.cpp   ****     }
AARCH64 GAS  obj/Ch15_05.s 			page 62


 2502              		.loc 1 58 20 view .LVU719
 2503 0ed4 1020241E 		fcmpe	s0, s4
 2504 0ed8 81C0801A 		csel	w1, w4, w0, gt
 2505              	.L157:
  58:Ch15_05.cpp   ****     }
 2506              		.loc 1 58 18 view .LVU720
 2507 0edc E1140038 		strb	w1, [x7], 1
 2508              	.LVL209:
  58:Ch15_05.cpp   ****     }
 2509              		.loc 1 58 18 view .LVU721
 2510              	.LBE902:
  45:Ch15_05.cpp   ****     {
 2511              		.loc 1 45 5 is_stmt 1 view .LVU722
  45:Ch15_05.cpp   ****     {
 2512              		.loc 1 45 26 view .LVU723
 2513 0ee0 5F0006EB 		cmp	x2, x6
 2514 0ee4 41FDFF54 		bne	.L158
 2515              	.LBB903:
  55:Ch15_05.cpp   ****             gs_temp = 255.0f;
 2516              		.loc 1 55 14 is_stmt 0 view .LVU724
 2517 0ee8 20008052 		mov	w0, 1
 2518 0eec E2FFFF17 		b	.L148
 2519              	.LBE903:
 2520              	.LBE904:
 2521              	.LBE905:
 2522              		.cfi_endproc
 2523              	.LFE1651:
 2524              		.size	_Z17ConvertRgbToGsCppPhPK5RGB32mPKf, .-_Z17ConvertRgbToGsCppPhPK5RGB32mPKf
 2525              		.align	2
 2526              		.p2align 4,,11
 2527              		.global	_Z21ConvertRgbToGsCpp_ompPhPK5RGB32mPKfi
 2528              		.type	_Z21ConvertRgbToGsCpp_ompPhPK5RGB32mPKfi, %function
 2529              	_Z21ConvertRgbToGsCpp_ompPhPK5RGB32mPKfi:
 2530              	.LVL210:
 2531              	.LFB1652:
  66:Ch15_05.cpp   ****     omp_set_num_threads(n_threads);
 2532              		.loc 1 66 1 is_stmt 1 view -0
 2533              		.cfi_startproc
  67:Ch15_05.cpp   ****     #pragma omp parallel
 2534              		.loc 1 67 5 view .LVU726
  66:Ch15_05.cpp   ****     omp_set_num_threads(n_threads);
 2535              		.loc 1 66 1 is_stmt 0 view .LVU727
 2536 0ef0 FD7BBBA9 		stp	x29, x30, [sp, -80]!
 2537              		.cfi_def_cfa_offset 80
 2538              		.cfi_offset 29, -80
 2539              		.cfi_offset 30, -72
 2540 0ef4 FD030091 		mov	x29, sp
 2541 0ef8 F35301A9 		stp	x19, x20, [sp, 16]
 2542              		.cfi_offset 19, -64
 2543              		.cfi_offset 20, -56
 2544 0efc F40302AA 		mov	x20, x2
 2545 0f00 F30303AA 		mov	x19, x3
 2546 0f04 F55B02A9 		stp	x21, x22, [sp, 32]
 2547              		.cfi_offset 21, -48
 2548              		.cfi_offset 22, -40
  66:Ch15_05.cpp   ****     omp_set_num_threads(n_threads);
 2549              		.loc 1 66 1 view .LVU728
AARCH64 GAS  obj/Ch15_05.s 			page 63


 2550 0f08 F50301AA 		mov	x21, x1
 2551 0f0c F60300AA 		mov	x22, x0
 2552 0f10 E003042A 		mov	w0, w4
 2553              	.LVL211:
  67:Ch15_05.cpp   ****     #pragma omp parallel
 2554              		.loc 1 67 24 view .LVU729
 2555 0f14 00000094 		bl	omp_set_num_threads
 2556              	.LVL212:
  68:Ch15_05.cpp   **** 	{ 
 2557              		.loc 1 68 9 is_stmt 1 view .LVU730
 2558 0f18 E1C30091 		add	x1, sp, 48
 2559 0f1c 03008052 		mov	w3, 0
 2560 0f20 02008052 		mov	w2, 0
 2561 0f24 00000090 		adrp	x0, _Z21ConvertRgbToGsCpp_ompPhPK5RGB32mPKfi._omp_fn.0
 2562 0f28 00000091 		add	x0, x0, :lo12:_Z21ConvertRgbToGsCpp_ompPhPK5RGB32mPKfi._omp_fn.0
 2563              	.LBB907:
 2564 0f2c F65703A9 		stp	x22, x21, [sp, 48]
 2565 0f30 F44F04A9 		stp	x20, x19, [sp, 64]
 2566 0f34 00000094 		bl	GOMP_parallel
 2567              	.LVL213:
 2568              	.LBE907:
  85:Ch15_05.cpp   **** 			
  86:Ch15_05.cpp   **** 	    }
  87:Ch15_05.cpp   **** 	}
  88:Ch15_05.cpp   **** 	
  89:Ch15_05.cpp   **** }
 2569              		.loc 1 89 1 is_stmt 0 view .LVU731
 2570 0f38 F35341A9 		ldp	x19, x20, [sp, 16]
 2571              	.LVL214:
 2572              		.loc 1 89 1 view .LVU732
 2573 0f3c F55B42A9 		ldp	x21, x22, [sp, 32]
 2574              	.LVL215:
 2575              		.loc 1 89 1 view .LVU733
 2576 0f40 FD7BC5A8 		ldp	x29, x30, [sp], 80
 2577              		.cfi_restore 30
 2578              		.cfi_restore 29
 2579              		.cfi_restore 21
 2580              		.cfi_restore 22
 2581              		.cfi_restore 19
 2582              		.cfi_restore 20
 2583              		.cfi_def_cfa_offset 0
 2584 0f44 C0035FD6 		ret
 2585              		.cfi_endproc
 2586              	.LFE1652:
 2587              		.size	_Z21ConvertRgbToGsCpp_ompPhPK5RGB32mPKfi, .-_Z21ConvertRgbToGsCpp_ompPhPK5RGB32mPKfi
 2588              		.section	.rodata.str1.8
 2589 0233 00000000 		.align	3
 2589      00
 2590              	.LC15:
 2591 0238 2E2E2F62 		.string	"../beach_sunset.png"
 2591      65616368 
 2591      5F73756E 
 2591      7365742E 
 2591      706E6700 
 2592 024c 00000000 		.align	3
 2593              	.LC16:
 2594 0250 706E6700 		.string	"png"
AARCH64 GAS  obj/Ch15_05.s 			page 64


 2595 0254 00000000 		.align	3
 2596              	.LC17:
 2597 0258 2E00     		.string	"."
 2598 025a 00000000 		.align	3
 2598      0000
 2599              	.LC18:
 2600 0260 62617369 		.string	"basic_string::substr"
 2600      635F7374 
 2600      72696E67 
 2600      3A3A7375 
 2600      62737472 
 2601 0275 000000   		.align	3
 2602              	.LC19:
 2603 0278 25733A20 		.string	"%s: __pos (which is %zu) > this->size() (which is %zu)"
 2603      5F5F706F 
 2603      73202877 
 2603      68696368 
 2603      20697320 
 2604 02af 00       		.align	3
 2605              	.LC20:
 2606 02b0 62617369 		.string	"basic_string::_M_construct null not valid"
 2606      635F7374 
 2606      72696E67 
 2606      3A3A5F4D 
 2606      5F636F6E 
 2607 02da 00000000 		.align	3
 2607      0000
 2608              	.LC21:
 2609 02e0 496D6167 		.string	"ImageMatrix::ImageMatrix(const char* filename) - unsupported image file type"
 2609      654D6174 
 2609      7269783A 
 2609      3A496D61 
 2609      67654D61 
 2610 032d 000000   		.align	3
 2611              	.LC22:
 2612 0330 52657375 		.string	"Results for ConvertRgbToGs\n"
 2612      6C747320 
 2612      666F7220 
 2612      436F6E76 
 2612      65727452 
 2613 034c 00000000 		.align	3
 2614              	.LC23:
 2615 0350 436F6E76 		.string	"Converting RGB image "
 2615      65727469 
 2615      6E672052 
 2615      47422069 
 2615      6D616765 
 2616 0366 0000     		.align	3
 2617              	.LC24:
 2618 0368 2020696D 		.string	"  im_h = "
 2618      5F68203D 
 2618      2000
 2619 0372 00000000 		.align	3
 2619      0000
 2620              	.LC25:
 2621 0378 20706978 		.string	" pixels\n"
 2621      656C730A 
AARCH64 GAS  obj/Ch15_05.s 			page 65


 2621      00
 2622 0381 00000000 		.align	3
 2622      000000
 2623              	.LC26:
 2624 0388 2020696D 		.string	"  im_w = "
 2624      5F77203D 
 2624      2000
 2625 0392 00000000 		.align	3
 2625      0000
 2626              	.LC27:
 2627 0398 53617669 		.string	"Saving grayscale image #1 - "
 2627      6E672067 
 2627      72617973 
 2627      63616C65 
 2627      20696D61 
 2628 03b5 000000   		.align	3
 2629              	.LC28:
 2630 03b8 2E2F436F 		.string	"./ConvertRgbToGs_ImageC_GS1.png"
 2630      6E766572 
 2630      74526762 
 2630      546F4773 
 2630      5F496D61 
 2631              		.align	3
 2632              	.LC29:
 2633 03d8 53617669 		.string	"Saving grayscale image #2 - "
 2633      6E672067 
 2633      72617973 
 2633      63616C65 
 2633      20696D61 
 2634 03f5 000000   		.align	3
 2635              	.LC30:
 2636 03f8 2E2F436F 		.string	"./ConvertRgbToGs_ImageC_GS2.png"
 2636      6E766572 
 2636      74526762 
 2636      546F4773 
 2636      5F496D61 
 2637              		.align	3
 2638              	.LC31:
 2639 0418 53617669 		.string	"Saving grayscale image #3 - "
 2639      6E672067 
 2639      72617973 
 2639      63616C65 
 2639      20696D61 
 2640 0435 000000   		.align	3
 2641              	.LC32:
 2642 0438 2E2F436F 		.string	"./ConvertRgbToGs_ImageC_GS3.png"
 2642      6E766572 
 2642      74526762 
 2642      546F4773 
 2642      5F496D61 
 2643              		.align	3
 2644              	.LC33:
 2645 0458 496E7661 		.string	"Invalid return code\n"
 2645      6C696420 
 2645      72657475 
 2645      726E2063 
 2645      6F64650A 
AARCH64 GAS  obj/Ch15_05.s 			page 66


 2646 046d 000000   		.align	3
 2647              	.LC34:
 2648 0470 47726179 		.string	"Grayscale image2 compare OK\n"
 2648      7363616C 
 2648      6520696D 
 2648      61676532 
 2648      20636F6D 
 2649 048d 000000   		.align	3
 2650              	.LC35:
 2651 0490 47726179 		.string	"Grayscale image2 compare failed\n"
 2651      7363616C 
 2651      6520696D 
 2651      61676532 
 2651      20636F6D 
 2652 04b1 00000000 		.align	3
 2652      000000
 2653              	.LC36:
 2654 04b8 47726179 		.string	"Grayscale image3 compare OK\n"
 2654      7363616C 
 2654      6520696D 
 2654      61676533 
 2654      20636F6D 
 2655 04d5 000000   		.align	3
 2656              	.LC37:
 2657 04d8 47726179 		.string	"Grayscale image3 compare failed\n"
 2657      7363616C 
 2657      6520696D 
 2657      61676533 
 2657      20636F6D 
 2658              		.text
 2659              		.align	2
 2660 0f48 1F2003D5 		.p2align 4,,11
 2660      1F2003D5 
 2661              		.global	_Z14ConvertRgbToGsv
 2662              		.type	_Z14ConvertRgbToGsv, %function
 2663              	_Z14ConvertRgbToGsv:
 2664              	.LFB1653:
  90:Ch15_05.cpp   **** 
  91:Ch15_05.cpp   **** void ConvertRgbToGs(void)
  92:Ch15_05.cpp   **** {
 2665              		.loc 1 92 1 is_stmt 1 view -0
 2666              		.cfi_startproc
 2667              		.cfi_personality 0x9b,DW.ref.__gxx_personality_v0
 2668              		.cfi_lsda 0x1b,.LLSDA1653
  93:Ch15_05.cpp   ****     const char nl = '\n';
 2669              		.loc 1 93 5 view .LVU735
 2670              	.LVL216:
  94:Ch15_05.cpp   ****     const char* fn_rgb = "../beach_sunset.png";
 2671              		.loc 1 94 5 view .LVU736
  95:Ch15_05.cpp   ****     const char* fn_gs1 = "./ConvertRgbToGs_ImageC_GS1.png";
 2672              		.loc 1 95 5 view .LVU737
  96:Ch15_05.cpp   ****     const char* fn_gs2 = "./ConvertRgbToGs_ImageC_GS2.png";
 2673              		.loc 1 96 5 view .LVU738
  97:Ch15_05.cpp   ****     const char* fn_gs3 = "./ConvertRgbToGs_ImageC_GS3.png";
 2674              		.loc 1 97 5 view .LVU739
  98:Ch15_05.cpp   ****     ImageMatrix im_rgb(fn_rgb, PixelType::Rgb32);
 2675              		.loc 1 98 5 view .LVU740
AARCH64 GAS  obj/Ch15_05.s 			page 67


 2676              	.LBB1727:
 2677              	.LBI1727:
 2678              		.file 4 "/usr/include/c++/10/bits/allocator.h"
   1:/usr/include/c++/10/bits/allocator.h **** // Allocators -*- C++ -*-
   2:/usr/include/c++/10/bits/allocator.h **** 
   3:/usr/include/c++/10/bits/allocator.h **** // Copyright (C) 2001-2020 Free Software Foundation, Inc.
   4:/usr/include/c++/10/bits/allocator.h **** //
   5:/usr/include/c++/10/bits/allocator.h **** // This file is part of the GNU ISO C++ Library.  This library is free
   6:/usr/include/c++/10/bits/allocator.h **** // software; you can redistribute it and/or modify it under the
   7:/usr/include/c++/10/bits/allocator.h **** // terms of the GNU General Public License as published by the
   8:/usr/include/c++/10/bits/allocator.h **** // Free Software Foundation; either version 3, or (at your option)
   9:/usr/include/c++/10/bits/allocator.h **** // any later version.
  10:/usr/include/c++/10/bits/allocator.h **** 
  11:/usr/include/c++/10/bits/allocator.h **** // This library is distributed in the hope that it will be useful,
  12:/usr/include/c++/10/bits/allocator.h **** // but WITHOUT ANY WARRANTY; without even the implied warranty of
  13:/usr/include/c++/10/bits/allocator.h **** // MERCHANTABILITY or FITNESS FOR A PARTICULAR PURPOSE.  See the
  14:/usr/include/c++/10/bits/allocator.h **** // GNU General Public License for more details.
  15:/usr/include/c++/10/bits/allocator.h **** 
  16:/usr/include/c++/10/bits/allocator.h **** // Under Section 7 of GPL version 3, you are granted additional
  17:/usr/include/c++/10/bits/allocator.h **** // permissions described in the GCC Runtime Library Exception, version
  18:/usr/include/c++/10/bits/allocator.h **** // 3.1, as published by the Free Software Foundation.
  19:/usr/include/c++/10/bits/allocator.h **** 
  20:/usr/include/c++/10/bits/allocator.h **** // You should have received a copy of the GNU General Public License and
  21:/usr/include/c++/10/bits/allocator.h **** // a copy of the GCC Runtime Library Exception along with this program;
  22:/usr/include/c++/10/bits/allocator.h **** // see the files COPYING3 and COPYING.RUNTIME respectively.  If not, see
  23:/usr/include/c++/10/bits/allocator.h **** // <http://www.gnu.org/licenses/>.
  24:/usr/include/c++/10/bits/allocator.h **** 
  25:/usr/include/c++/10/bits/allocator.h **** /*
  26:/usr/include/c++/10/bits/allocator.h ****  * Copyright (c) 1996-1997
  27:/usr/include/c++/10/bits/allocator.h ****  * Silicon Graphics Computer Systems, Inc.
  28:/usr/include/c++/10/bits/allocator.h ****  *
  29:/usr/include/c++/10/bits/allocator.h ****  * Permission to use, copy, modify, distribute and sell this software
  30:/usr/include/c++/10/bits/allocator.h ****  * and its documentation for any purpose is hereby granted without fee,
  31:/usr/include/c++/10/bits/allocator.h ****  * provided that the above copyright notice appear in all copies and
  32:/usr/include/c++/10/bits/allocator.h ****  * that both that copyright notice and this permission notice appear
  33:/usr/include/c++/10/bits/allocator.h ****  * in supporting documentation.  Silicon Graphics makes no
  34:/usr/include/c++/10/bits/allocator.h ****  * representations about the suitability of this software for any
  35:/usr/include/c++/10/bits/allocator.h ****  * purpose.  It is provided "as is" without express or implied warranty.
  36:/usr/include/c++/10/bits/allocator.h ****  */
  37:/usr/include/c++/10/bits/allocator.h **** 
  38:/usr/include/c++/10/bits/allocator.h **** /** @file bits/allocator.h
  39:/usr/include/c++/10/bits/allocator.h ****  *  This is an internal header file, included by other library headers.
  40:/usr/include/c++/10/bits/allocator.h ****  *  Do not attempt to use it directly. @headername{memory}
  41:/usr/include/c++/10/bits/allocator.h ****  */
  42:/usr/include/c++/10/bits/allocator.h **** 
  43:/usr/include/c++/10/bits/allocator.h **** #ifndef _ALLOCATOR_H
  44:/usr/include/c++/10/bits/allocator.h **** #define _ALLOCATOR_H 1
  45:/usr/include/c++/10/bits/allocator.h **** 
  46:/usr/include/c++/10/bits/allocator.h **** #include <bits/c++allocator.h> // Define the base class to std::allocator.
  47:/usr/include/c++/10/bits/allocator.h **** #include <bits/memoryfwd.h>
  48:/usr/include/c++/10/bits/allocator.h **** #if __cplusplus >= 201103L
  49:/usr/include/c++/10/bits/allocator.h **** #include <type_traits>
  50:/usr/include/c++/10/bits/allocator.h **** #endif
  51:/usr/include/c++/10/bits/allocator.h **** 
  52:/usr/include/c++/10/bits/allocator.h **** #define __cpp_lib_incomplete_container_elements 201505
  53:/usr/include/c++/10/bits/allocator.h **** 
  54:/usr/include/c++/10/bits/allocator.h **** namespace std _GLIBCXX_VISIBILITY(default)
AARCH64 GAS  obj/Ch15_05.s 			page 68


  55:/usr/include/c++/10/bits/allocator.h **** {
  56:/usr/include/c++/10/bits/allocator.h **** _GLIBCXX_BEGIN_NAMESPACE_VERSION
  57:/usr/include/c++/10/bits/allocator.h **** 
  58:/usr/include/c++/10/bits/allocator.h ****   /**
  59:/usr/include/c++/10/bits/allocator.h ****    *  @addtogroup allocators
  60:/usr/include/c++/10/bits/allocator.h ****    *  @{
  61:/usr/include/c++/10/bits/allocator.h ****    */
  62:/usr/include/c++/10/bits/allocator.h **** 
  63:/usr/include/c++/10/bits/allocator.h ****   /// allocator<void> specialization.
  64:/usr/include/c++/10/bits/allocator.h ****   template<>
  65:/usr/include/c++/10/bits/allocator.h ****     class allocator<void>
  66:/usr/include/c++/10/bits/allocator.h ****     {
  67:/usr/include/c++/10/bits/allocator.h ****     public:
  68:/usr/include/c++/10/bits/allocator.h ****       typedef void        value_type;
  69:/usr/include/c++/10/bits/allocator.h ****       typedef size_t      size_type;
  70:/usr/include/c++/10/bits/allocator.h ****       typedef ptrdiff_t   difference_type;
  71:/usr/include/c++/10/bits/allocator.h **** #if __cplusplus <= 201703L
  72:/usr/include/c++/10/bits/allocator.h ****       typedef void*       pointer;
  73:/usr/include/c++/10/bits/allocator.h ****       typedef const void* const_pointer;
  74:/usr/include/c++/10/bits/allocator.h **** 
  75:/usr/include/c++/10/bits/allocator.h ****       template<typename _Tp1>
  76:/usr/include/c++/10/bits/allocator.h **** 	struct rebind
  77:/usr/include/c++/10/bits/allocator.h **** 	{ typedef allocator<_Tp1> other; };
  78:/usr/include/c++/10/bits/allocator.h **** #else
  79:/usr/include/c++/10/bits/allocator.h ****       allocator() = default;
  80:/usr/include/c++/10/bits/allocator.h **** 
  81:/usr/include/c++/10/bits/allocator.h ****       template<typename _Up>
  82:/usr/include/c++/10/bits/allocator.h **** 	constexpr
  83:/usr/include/c++/10/bits/allocator.h **** 	allocator(const allocator<_Up>&) { }
  84:/usr/include/c++/10/bits/allocator.h **** #endif // ! C++20
  85:/usr/include/c++/10/bits/allocator.h **** 
  86:/usr/include/c++/10/bits/allocator.h **** #if __cplusplus >= 201103L && __cplusplus <= 201703L
  87:/usr/include/c++/10/bits/allocator.h ****       // _GLIBCXX_RESOLVE_LIB_DEFECTS
  88:/usr/include/c++/10/bits/allocator.h ****       // 2103. std::allocator propagate_on_container_move_assignment
  89:/usr/include/c++/10/bits/allocator.h ****       typedef true_type propagate_on_container_move_assignment;
  90:/usr/include/c++/10/bits/allocator.h **** 
  91:/usr/include/c++/10/bits/allocator.h ****       typedef true_type is_always_equal;
  92:/usr/include/c++/10/bits/allocator.h **** 
  93:/usr/include/c++/10/bits/allocator.h ****       template<typename _Up, typename... _Args>
  94:/usr/include/c++/10/bits/allocator.h **** 	void
  95:/usr/include/c++/10/bits/allocator.h **** 	construct(_Up* __p, _Args&&... __args)
  96:/usr/include/c++/10/bits/allocator.h **** 	noexcept(std::is_nothrow_constructible<_Up, _Args...>::value)
  97:/usr/include/c++/10/bits/allocator.h **** 	{ ::new((void *)__p) _Up(std::forward<_Args>(__args)...); }
  98:/usr/include/c++/10/bits/allocator.h **** 
  99:/usr/include/c++/10/bits/allocator.h ****       template<typename _Up>
 100:/usr/include/c++/10/bits/allocator.h **** 	void
 101:/usr/include/c++/10/bits/allocator.h **** 	destroy(_Up* __p)
 102:/usr/include/c++/10/bits/allocator.h **** 	noexcept(std::is_nothrow_destructible<_Up>::value)
 103:/usr/include/c++/10/bits/allocator.h **** 	{ __p->~_Up(); }
 104:/usr/include/c++/10/bits/allocator.h **** #endif // C++11 to C++17
 105:/usr/include/c++/10/bits/allocator.h ****     };
 106:/usr/include/c++/10/bits/allocator.h **** 
 107:/usr/include/c++/10/bits/allocator.h ****   /**
 108:/usr/include/c++/10/bits/allocator.h ****    * @brief  The @a standard allocator, as per [20.4].
 109:/usr/include/c++/10/bits/allocator.h ****    *
 110:/usr/include/c++/10/bits/allocator.h ****    *  See https://gcc.gnu.org/onlinedocs/libstdc++/manual/memory.html#std.util.memory.allocator
 111:/usr/include/c++/10/bits/allocator.h ****    *  for further details.
AARCH64 GAS  obj/Ch15_05.s 			page 69


 112:/usr/include/c++/10/bits/allocator.h ****    *
 113:/usr/include/c++/10/bits/allocator.h ****    *  @tparam  _Tp  Type of allocated object.
 114:/usr/include/c++/10/bits/allocator.h ****    */
 115:/usr/include/c++/10/bits/allocator.h ****   template<typename _Tp>
 116:/usr/include/c++/10/bits/allocator.h ****     class allocator : public __allocator_base<_Tp>
 117:/usr/include/c++/10/bits/allocator.h ****     {
 118:/usr/include/c++/10/bits/allocator.h ****     public:
 119:/usr/include/c++/10/bits/allocator.h ****       typedef _Tp        value_type;
 120:/usr/include/c++/10/bits/allocator.h ****       typedef size_t     size_type;
 121:/usr/include/c++/10/bits/allocator.h ****       typedef ptrdiff_t  difference_type;
 122:/usr/include/c++/10/bits/allocator.h **** #if __cplusplus <= 201703L
 123:/usr/include/c++/10/bits/allocator.h ****       typedef _Tp*       pointer;
 124:/usr/include/c++/10/bits/allocator.h ****       typedef const _Tp* const_pointer;
 125:/usr/include/c++/10/bits/allocator.h ****       typedef _Tp&       reference;
 126:/usr/include/c++/10/bits/allocator.h ****       typedef const _Tp& const_reference;
 127:/usr/include/c++/10/bits/allocator.h **** 
 128:/usr/include/c++/10/bits/allocator.h ****       template<typename _Tp1>
 129:/usr/include/c++/10/bits/allocator.h **** 	struct rebind
 130:/usr/include/c++/10/bits/allocator.h **** 	{ typedef allocator<_Tp1> other; };
 131:/usr/include/c++/10/bits/allocator.h **** #endif
 132:/usr/include/c++/10/bits/allocator.h **** 
 133:/usr/include/c++/10/bits/allocator.h **** #if __cplusplus >= 201103L
 134:/usr/include/c++/10/bits/allocator.h ****       // _GLIBCXX_RESOLVE_LIB_DEFECTS
 135:/usr/include/c++/10/bits/allocator.h ****       // 2103. std::allocator propagate_on_container_move_assignment
 136:/usr/include/c++/10/bits/allocator.h ****       typedef true_type propagate_on_container_move_assignment;
 137:/usr/include/c++/10/bits/allocator.h **** 
 138:/usr/include/c++/10/bits/allocator.h ****       typedef true_type is_always_equal;
 139:/usr/include/c++/10/bits/allocator.h **** #endif
 140:/usr/include/c++/10/bits/allocator.h **** 
 141:/usr/include/c++/10/bits/allocator.h ****       // _GLIBCXX_RESOLVE_LIB_DEFECTS
 142:/usr/include/c++/10/bits/allocator.h ****       // 3035. std::allocator's constructors should be constexpr
 143:/usr/include/c++/10/bits/allocator.h ****       _GLIBCXX20_CONSTEXPR
 144:/usr/include/c++/10/bits/allocator.h ****       allocator() _GLIBCXX_NOTHROW { }
 2679              		.loc 4 144 7 view .LVU741
 2680              	.LBB1728:
 2681              	.LBI1728:
 2682              		.file 5 "/usr/include/c++/10/ext/new_allocator.h"
   1:/usr/include/c++/10/ext/new_allocator.h **** // Allocator that wraps operator new -*- C++ -*-
   2:/usr/include/c++/10/ext/new_allocator.h **** 
   3:/usr/include/c++/10/ext/new_allocator.h **** // Copyright (C) 2001-2020 Free Software Foundation, Inc.
   4:/usr/include/c++/10/ext/new_allocator.h **** //
   5:/usr/include/c++/10/ext/new_allocator.h **** // This file is part of the GNU ISO C++ Library.  This library is free
   6:/usr/include/c++/10/ext/new_allocator.h **** // software; you can redistribute it and/or modify it under the
   7:/usr/include/c++/10/ext/new_allocator.h **** // terms of the GNU General Public License as published by the
   8:/usr/include/c++/10/ext/new_allocator.h **** // Free Software Foundation; either version 3, or (at your option)
   9:/usr/include/c++/10/ext/new_allocator.h **** // any later version.
  10:/usr/include/c++/10/ext/new_allocator.h **** 
  11:/usr/include/c++/10/ext/new_allocator.h **** // This library is distributed in the hope that it will be useful,
  12:/usr/include/c++/10/ext/new_allocator.h **** // but WITHOUT ANY WARRANTY; without even the implied warranty of
  13:/usr/include/c++/10/ext/new_allocator.h **** // MERCHANTABILITY or FITNESS FOR A PARTICULAR PURPOSE.  See the
  14:/usr/include/c++/10/ext/new_allocator.h **** // GNU General Public License for more details.
  15:/usr/include/c++/10/ext/new_allocator.h **** 
  16:/usr/include/c++/10/ext/new_allocator.h **** // Under Section 7 of GPL version 3, you are granted additional
  17:/usr/include/c++/10/ext/new_allocator.h **** // permissions described in the GCC Runtime Library Exception, version
  18:/usr/include/c++/10/ext/new_allocator.h **** // 3.1, as published by the Free Software Foundation.
  19:/usr/include/c++/10/ext/new_allocator.h **** 
  20:/usr/include/c++/10/ext/new_allocator.h **** // You should have received a copy of the GNU General Public License and
AARCH64 GAS  obj/Ch15_05.s 			page 70


  21:/usr/include/c++/10/ext/new_allocator.h **** // a copy of the GCC Runtime Library Exception along with this program;
  22:/usr/include/c++/10/ext/new_allocator.h **** // see the files COPYING3 and COPYING.RUNTIME respectively.  If not, see
  23:/usr/include/c++/10/ext/new_allocator.h **** // <http://www.gnu.org/licenses/>.
  24:/usr/include/c++/10/ext/new_allocator.h **** 
  25:/usr/include/c++/10/ext/new_allocator.h **** /** @file ext/new_allocator.h
  26:/usr/include/c++/10/ext/new_allocator.h ****  *  This file is a GNU extension to the Standard C++ Library.
  27:/usr/include/c++/10/ext/new_allocator.h ****  */
  28:/usr/include/c++/10/ext/new_allocator.h **** 
  29:/usr/include/c++/10/ext/new_allocator.h **** #ifndef _NEW_ALLOCATOR_H
  30:/usr/include/c++/10/ext/new_allocator.h **** #define _NEW_ALLOCATOR_H 1
  31:/usr/include/c++/10/ext/new_allocator.h **** 
  32:/usr/include/c++/10/ext/new_allocator.h **** #include <bits/c++config.h>
  33:/usr/include/c++/10/ext/new_allocator.h **** #include <new>
  34:/usr/include/c++/10/ext/new_allocator.h **** #include <bits/functexcept.h>
  35:/usr/include/c++/10/ext/new_allocator.h **** #include <bits/move.h>
  36:/usr/include/c++/10/ext/new_allocator.h **** #if __cplusplus >= 201103L
  37:/usr/include/c++/10/ext/new_allocator.h **** #include <type_traits>
  38:/usr/include/c++/10/ext/new_allocator.h **** #endif
  39:/usr/include/c++/10/ext/new_allocator.h **** 
  40:/usr/include/c++/10/ext/new_allocator.h **** namespace __gnu_cxx _GLIBCXX_VISIBILITY(default)
  41:/usr/include/c++/10/ext/new_allocator.h **** {
  42:/usr/include/c++/10/ext/new_allocator.h **** _GLIBCXX_BEGIN_NAMESPACE_VERSION
  43:/usr/include/c++/10/ext/new_allocator.h **** 
  44:/usr/include/c++/10/ext/new_allocator.h ****   /**
  45:/usr/include/c++/10/ext/new_allocator.h ****    *  @brief  An allocator that uses global new, as per [20.4].
  46:/usr/include/c++/10/ext/new_allocator.h ****    *  @ingroup allocators
  47:/usr/include/c++/10/ext/new_allocator.h ****    *
  48:/usr/include/c++/10/ext/new_allocator.h ****    *  This is precisely the allocator defined in the C++ Standard.
  49:/usr/include/c++/10/ext/new_allocator.h ****    *    - all allocation calls operator new
  50:/usr/include/c++/10/ext/new_allocator.h ****    *    - all deallocation calls operator delete
  51:/usr/include/c++/10/ext/new_allocator.h ****    *
  52:/usr/include/c++/10/ext/new_allocator.h ****    *  @tparam  _Tp  Type of allocated object.
  53:/usr/include/c++/10/ext/new_allocator.h ****    */
  54:/usr/include/c++/10/ext/new_allocator.h ****   template<typename _Tp>
  55:/usr/include/c++/10/ext/new_allocator.h ****     class new_allocator
  56:/usr/include/c++/10/ext/new_allocator.h ****     {
  57:/usr/include/c++/10/ext/new_allocator.h ****     public:
  58:/usr/include/c++/10/ext/new_allocator.h ****       typedef _Tp        value_type;
  59:/usr/include/c++/10/ext/new_allocator.h ****       typedef std::size_t     size_type;
  60:/usr/include/c++/10/ext/new_allocator.h ****       typedef std::ptrdiff_t  difference_type;
  61:/usr/include/c++/10/ext/new_allocator.h **** #if __cplusplus <= 201703L
  62:/usr/include/c++/10/ext/new_allocator.h ****       typedef _Tp*       pointer;
  63:/usr/include/c++/10/ext/new_allocator.h ****       typedef const _Tp* const_pointer;
  64:/usr/include/c++/10/ext/new_allocator.h ****       typedef _Tp&       reference;
  65:/usr/include/c++/10/ext/new_allocator.h ****       typedef const _Tp& const_reference;
  66:/usr/include/c++/10/ext/new_allocator.h **** 
  67:/usr/include/c++/10/ext/new_allocator.h ****       template<typename _Tp1>
  68:/usr/include/c++/10/ext/new_allocator.h **** 	struct rebind
  69:/usr/include/c++/10/ext/new_allocator.h **** 	{ typedef new_allocator<_Tp1> other; };
  70:/usr/include/c++/10/ext/new_allocator.h **** #endif
  71:/usr/include/c++/10/ext/new_allocator.h **** 
  72:/usr/include/c++/10/ext/new_allocator.h **** #if __cplusplus >= 201103L
  73:/usr/include/c++/10/ext/new_allocator.h ****       // _GLIBCXX_RESOLVE_LIB_DEFECTS
  74:/usr/include/c++/10/ext/new_allocator.h ****       // 2103. propagate_on_container_move_assignment
  75:/usr/include/c++/10/ext/new_allocator.h ****       typedef std::true_type propagate_on_container_move_assignment;
  76:/usr/include/c++/10/ext/new_allocator.h **** #endif
  77:/usr/include/c++/10/ext/new_allocator.h **** 
AARCH64 GAS  obj/Ch15_05.s 			page 71


  78:/usr/include/c++/10/ext/new_allocator.h ****       _GLIBCXX20_CONSTEXPR
  79:/usr/include/c++/10/ext/new_allocator.h ****       new_allocator() _GLIBCXX_USE_NOEXCEPT { }
 2683              		.loc 5 79 7 view .LVU742
 2684              		.loc 5 79 7 is_stmt 0 view .LVU743
 2685              	.LBE1728:
 2686              	.LBE1727:
  92:Ch15_05.cpp   ****     const char nl = '\n';
 2687              		.loc 1 92 1 view .LVU744
 2688 0f50 FD7BAFA9 		stp	x29, x30, [sp, -272]!
 2689              		.cfi_def_cfa_offset 272
 2690              		.cfi_offset 29, -272
 2691              		.cfi_offset 30, -264
 2692              	.LVL217:
 2693              	.LBB1729:
 2694              	.LBI1729:
 2695              		.file 6 "/usr/include/c++/10/bits/basic_string.h"
   1:/usr/include/c++/10/bits/basic_string.h **** // Components for manipulating sequences of characters -*- C++ -*-
   2:/usr/include/c++/10/bits/basic_string.h **** 
   3:/usr/include/c++/10/bits/basic_string.h **** // Copyright (C) 1997-2020 Free Software Foundation, Inc.
   4:/usr/include/c++/10/bits/basic_string.h **** //
   5:/usr/include/c++/10/bits/basic_string.h **** // This file is part of the GNU ISO C++ Library.  This library is free
   6:/usr/include/c++/10/bits/basic_string.h **** // software; you can redistribute it and/or modify it under the
   7:/usr/include/c++/10/bits/basic_string.h **** // terms of the GNU General Public License as published by the
   8:/usr/include/c++/10/bits/basic_string.h **** // Free Software Foundation; either version 3, or (at your option)
   9:/usr/include/c++/10/bits/basic_string.h **** // any later version.
  10:/usr/include/c++/10/bits/basic_string.h **** 
  11:/usr/include/c++/10/bits/basic_string.h **** // This library is distributed in the hope that it will be useful,
  12:/usr/include/c++/10/bits/basic_string.h **** // but WITHOUT ANY WARRANTY; without even the implied warranty of
  13:/usr/include/c++/10/bits/basic_string.h **** // MERCHANTABILITY or FITNESS FOR A PARTICULAR PURPOSE.  See the
  14:/usr/include/c++/10/bits/basic_string.h **** // GNU General Public License for more details.
  15:/usr/include/c++/10/bits/basic_string.h **** 
  16:/usr/include/c++/10/bits/basic_string.h **** // Under Section 7 of GPL version 3, you are granted additional
  17:/usr/include/c++/10/bits/basic_string.h **** // permissions described in the GCC Runtime Library Exception, version
  18:/usr/include/c++/10/bits/basic_string.h **** // 3.1, as published by the Free Software Foundation.
  19:/usr/include/c++/10/bits/basic_string.h **** 
  20:/usr/include/c++/10/bits/basic_string.h **** // You should have received a copy of the GNU General Public License and
  21:/usr/include/c++/10/bits/basic_string.h **** // a copy of the GCC Runtime Library Exception along with this program;
  22:/usr/include/c++/10/bits/basic_string.h **** // see the files COPYING3 and COPYING.RUNTIME respectively.  If not, see
  23:/usr/include/c++/10/bits/basic_string.h **** // <http://www.gnu.org/licenses/>.
  24:/usr/include/c++/10/bits/basic_string.h **** 
  25:/usr/include/c++/10/bits/basic_string.h **** /** @file bits/basic_string.h
  26:/usr/include/c++/10/bits/basic_string.h ****  *  This is an internal header file, included by other library headers.
  27:/usr/include/c++/10/bits/basic_string.h ****  *  Do not attempt to use it directly. @headername{string}
  28:/usr/include/c++/10/bits/basic_string.h ****  */
  29:/usr/include/c++/10/bits/basic_string.h **** 
  30:/usr/include/c++/10/bits/basic_string.h **** //
  31:/usr/include/c++/10/bits/basic_string.h **** // ISO C++ 14882: 21 Strings library
  32:/usr/include/c++/10/bits/basic_string.h **** //
  33:/usr/include/c++/10/bits/basic_string.h **** 
  34:/usr/include/c++/10/bits/basic_string.h **** #ifndef _BASIC_STRING_H
  35:/usr/include/c++/10/bits/basic_string.h **** #define _BASIC_STRING_H 1
  36:/usr/include/c++/10/bits/basic_string.h **** 
  37:/usr/include/c++/10/bits/basic_string.h **** #pragma GCC system_header
  38:/usr/include/c++/10/bits/basic_string.h **** 
  39:/usr/include/c++/10/bits/basic_string.h **** #include <ext/atomicity.h>
  40:/usr/include/c++/10/bits/basic_string.h **** #include <ext/alloc_traits.h>
  41:/usr/include/c++/10/bits/basic_string.h **** #include <debug/debug.h>
AARCH64 GAS  obj/Ch15_05.s 			page 72


  42:/usr/include/c++/10/bits/basic_string.h **** 
  43:/usr/include/c++/10/bits/basic_string.h **** #if __cplusplus >= 201103L
  44:/usr/include/c++/10/bits/basic_string.h **** #include <initializer_list>
  45:/usr/include/c++/10/bits/basic_string.h **** #endif
  46:/usr/include/c++/10/bits/basic_string.h **** 
  47:/usr/include/c++/10/bits/basic_string.h **** #if __cplusplus >= 201703L
  48:/usr/include/c++/10/bits/basic_string.h **** # include <string_view>
  49:/usr/include/c++/10/bits/basic_string.h **** #endif
  50:/usr/include/c++/10/bits/basic_string.h **** 
  51:/usr/include/c++/10/bits/basic_string.h **** 
  52:/usr/include/c++/10/bits/basic_string.h **** namespace std _GLIBCXX_VISIBILITY(default)
  53:/usr/include/c++/10/bits/basic_string.h **** {
  54:/usr/include/c++/10/bits/basic_string.h **** _GLIBCXX_BEGIN_NAMESPACE_VERSION
  55:/usr/include/c++/10/bits/basic_string.h **** 
  56:/usr/include/c++/10/bits/basic_string.h **** #if _GLIBCXX_USE_CXX11_ABI
  57:/usr/include/c++/10/bits/basic_string.h **** _GLIBCXX_BEGIN_NAMESPACE_CXX11
  58:/usr/include/c++/10/bits/basic_string.h ****   /**
  59:/usr/include/c++/10/bits/basic_string.h ****    *  @class basic_string basic_string.h <string>
  60:/usr/include/c++/10/bits/basic_string.h ****    *  @brief  Managing sequences of characters and character-like objects.
  61:/usr/include/c++/10/bits/basic_string.h ****    *
  62:/usr/include/c++/10/bits/basic_string.h ****    *  @ingroup strings
  63:/usr/include/c++/10/bits/basic_string.h ****    *  @ingroup sequences
  64:/usr/include/c++/10/bits/basic_string.h ****    *
  65:/usr/include/c++/10/bits/basic_string.h ****    *  @tparam _CharT  Type of character
  66:/usr/include/c++/10/bits/basic_string.h ****    *  @tparam _Traits  Traits for character type, defaults to
  67:/usr/include/c++/10/bits/basic_string.h ****    *                   char_traits<_CharT>.
  68:/usr/include/c++/10/bits/basic_string.h ****    *  @tparam _Alloc  Allocator type, defaults to allocator<_CharT>.
  69:/usr/include/c++/10/bits/basic_string.h ****    *
  70:/usr/include/c++/10/bits/basic_string.h ****    *  Meets the requirements of a <a href="tables.html#65">container</a>, a
  71:/usr/include/c++/10/bits/basic_string.h ****    *  <a href="tables.html#66">reversible container</a>, and a
  72:/usr/include/c++/10/bits/basic_string.h ****    *  <a href="tables.html#67">sequence</a>.  Of the
  73:/usr/include/c++/10/bits/basic_string.h ****    *  <a href="tables.html#68">optional sequence requirements</a>, only
  74:/usr/include/c++/10/bits/basic_string.h ****    *  @c push_back, @c at, and @c %array access are supported.
  75:/usr/include/c++/10/bits/basic_string.h ****    */
  76:/usr/include/c++/10/bits/basic_string.h ****   template<typename _CharT, typename _Traits, typename _Alloc>
  77:/usr/include/c++/10/bits/basic_string.h ****     class basic_string
  78:/usr/include/c++/10/bits/basic_string.h ****     {
  79:/usr/include/c++/10/bits/basic_string.h ****       typedef typename __gnu_cxx::__alloc_traits<_Alloc>::template
  80:/usr/include/c++/10/bits/basic_string.h **** 	rebind<_CharT>::other _Char_alloc_type;
  81:/usr/include/c++/10/bits/basic_string.h ****       typedef __gnu_cxx::__alloc_traits<_Char_alloc_type> _Alloc_traits;
  82:/usr/include/c++/10/bits/basic_string.h **** 
  83:/usr/include/c++/10/bits/basic_string.h ****       // Types:
  84:/usr/include/c++/10/bits/basic_string.h ****     public:
  85:/usr/include/c++/10/bits/basic_string.h ****       typedef _Traits					traits_type;
  86:/usr/include/c++/10/bits/basic_string.h ****       typedef typename _Traits::char_type		value_type;
  87:/usr/include/c++/10/bits/basic_string.h ****       typedef _Char_alloc_type				allocator_type;
  88:/usr/include/c++/10/bits/basic_string.h ****       typedef typename _Alloc_traits::size_type		size_type;
  89:/usr/include/c++/10/bits/basic_string.h ****       typedef typename _Alloc_traits::difference_type	difference_type;
  90:/usr/include/c++/10/bits/basic_string.h ****       typedef typename _Alloc_traits::reference		reference;
  91:/usr/include/c++/10/bits/basic_string.h ****       typedef typename _Alloc_traits::const_reference	const_reference;
  92:/usr/include/c++/10/bits/basic_string.h ****       typedef typename _Alloc_traits::pointer		pointer;
  93:/usr/include/c++/10/bits/basic_string.h ****       typedef typename _Alloc_traits::const_pointer	const_pointer;
  94:/usr/include/c++/10/bits/basic_string.h ****       typedef __gnu_cxx::__normal_iterator<pointer, basic_string>  iterator;
  95:/usr/include/c++/10/bits/basic_string.h ****       typedef __gnu_cxx::__normal_iterator<const_pointer, basic_string>
  96:/usr/include/c++/10/bits/basic_string.h **** 							const_iterator;
  97:/usr/include/c++/10/bits/basic_string.h ****       typedef std::reverse_iterator<const_iterator>	const_reverse_iterator;
  98:/usr/include/c++/10/bits/basic_string.h ****       typedef std::reverse_iterator<iterator>		reverse_iterator;
AARCH64 GAS  obj/Ch15_05.s 			page 73


  99:/usr/include/c++/10/bits/basic_string.h **** 
 100:/usr/include/c++/10/bits/basic_string.h ****       ///  Value returned by various member functions when they fail.
 101:/usr/include/c++/10/bits/basic_string.h ****       static const size_type	npos = static_cast<size_type>(-1);
 102:/usr/include/c++/10/bits/basic_string.h **** 
 103:/usr/include/c++/10/bits/basic_string.h ****     protected:
 104:/usr/include/c++/10/bits/basic_string.h ****       // type used for positions in insert, erase etc.
 105:/usr/include/c++/10/bits/basic_string.h **** #if __cplusplus < 201103L
 106:/usr/include/c++/10/bits/basic_string.h ****       typedef iterator __const_iterator;
 107:/usr/include/c++/10/bits/basic_string.h **** #else
 108:/usr/include/c++/10/bits/basic_string.h ****       typedef const_iterator __const_iterator;
 109:/usr/include/c++/10/bits/basic_string.h **** #endif
 110:/usr/include/c++/10/bits/basic_string.h **** 
 111:/usr/include/c++/10/bits/basic_string.h ****     private:
 112:/usr/include/c++/10/bits/basic_string.h **** #if __cplusplus >= 201703L
 113:/usr/include/c++/10/bits/basic_string.h ****       // A helper type for avoiding boiler-plate.
 114:/usr/include/c++/10/bits/basic_string.h ****       typedef basic_string_view<_CharT, _Traits> __sv_type;
 115:/usr/include/c++/10/bits/basic_string.h **** 
 116:/usr/include/c++/10/bits/basic_string.h ****       template<typename _Tp, typename _Res>
 117:/usr/include/c++/10/bits/basic_string.h **** 	using _If_sv = enable_if_t<
 118:/usr/include/c++/10/bits/basic_string.h **** 	  __and_<is_convertible<const _Tp&, __sv_type>,
 119:/usr/include/c++/10/bits/basic_string.h **** 		 __not_<is_convertible<const _Tp*, const basic_string*>>,
 120:/usr/include/c++/10/bits/basic_string.h **** 		 __not_<is_convertible<const _Tp&, const _CharT*>>>::value,
 121:/usr/include/c++/10/bits/basic_string.h **** 	  _Res>;
 122:/usr/include/c++/10/bits/basic_string.h **** 
 123:/usr/include/c++/10/bits/basic_string.h ****       // Allows an implicit conversion to __sv_type.
 124:/usr/include/c++/10/bits/basic_string.h ****       static __sv_type
 125:/usr/include/c++/10/bits/basic_string.h ****       _S_to_string_view(__sv_type __svt) noexcept
 126:/usr/include/c++/10/bits/basic_string.h ****       { return __svt; }
 127:/usr/include/c++/10/bits/basic_string.h **** 
 128:/usr/include/c++/10/bits/basic_string.h ****       // Wraps a string_view by explicit conversion and thus
 129:/usr/include/c++/10/bits/basic_string.h ****       // allows to add an internal constructor that does not
 130:/usr/include/c++/10/bits/basic_string.h ****       // participate in overload resolution when a string_view
 131:/usr/include/c++/10/bits/basic_string.h ****       // is provided.
 132:/usr/include/c++/10/bits/basic_string.h ****       struct __sv_wrapper
 133:/usr/include/c++/10/bits/basic_string.h ****       {
 134:/usr/include/c++/10/bits/basic_string.h **** 	explicit __sv_wrapper(__sv_type __sv) noexcept : _M_sv(__sv) { }
 135:/usr/include/c++/10/bits/basic_string.h **** 	__sv_type _M_sv;
 136:/usr/include/c++/10/bits/basic_string.h ****       };
 137:/usr/include/c++/10/bits/basic_string.h **** 
 138:/usr/include/c++/10/bits/basic_string.h ****       /**
 139:/usr/include/c++/10/bits/basic_string.h ****        *  @brief  Only internally used: Construct string from a string view
 140:/usr/include/c++/10/bits/basic_string.h ****        *          wrapper.
 141:/usr/include/c++/10/bits/basic_string.h ****        *  @param  __svw  string view wrapper.
 142:/usr/include/c++/10/bits/basic_string.h ****        *  @param  __a  Allocator to use.
 143:/usr/include/c++/10/bits/basic_string.h ****        */
 144:/usr/include/c++/10/bits/basic_string.h ****       explicit
 145:/usr/include/c++/10/bits/basic_string.h ****       basic_string(__sv_wrapper __svw, const _Alloc& __a)
 146:/usr/include/c++/10/bits/basic_string.h ****       : basic_string(__svw._M_sv.data(), __svw._M_sv.size(), __a) { }
 147:/usr/include/c++/10/bits/basic_string.h **** #endif
 148:/usr/include/c++/10/bits/basic_string.h **** 
 149:/usr/include/c++/10/bits/basic_string.h ****       // Use empty-base optimization: http://www.cantrip.org/emptyopt.html
 150:/usr/include/c++/10/bits/basic_string.h ****       struct _Alloc_hider : allocator_type // TODO check __is_final
 151:/usr/include/c++/10/bits/basic_string.h ****       {
 152:/usr/include/c++/10/bits/basic_string.h **** #if __cplusplus < 201103L
 153:/usr/include/c++/10/bits/basic_string.h **** 	_Alloc_hider(pointer __dat, const _Alloc& __a = _Alloc())
 154:/usr/include/c++/10/bits/basic_string.h **** 	: allocator_type(__a), _M_p(__dat) { }
 155:/usr/include/c++/10/bits/basic_string.h **** #else
AARCH64 GAS  obj/Ch15_05.s 			page 74


 156:/usr/include/c++/10/bits/basic_string.h **** 	_Alloc_hider(pointer __dat, const _Alloc& __a)
 157:/usr/include/c++/10/bits/basic_string.h **** 	: allocator_type(__a), _M_p(__dat) { }
 158:/usr/include/c++/10/bits/basic_string.h **** 
 159:/usr/include/c++/10/bits/basic_string.h **** 	_Alloc_hider(pointer __dat, _Alloc&& __a = _Alloc())
 160:/usr/include/c++/10/bits/basic_string.h **** 	: allocator_type(std::move(__a)), _M_p(__dat) { }
 161:/usr/include/c++/10/bits/basic_string.h **** #endif
 162:/usr/include/c++/10/bits/basic_string.h **** 
 163:/usr/include/c++/10/bits/basic_string.h **** 	pointer _M_p; // The actual data.
 164:/usr/include/c++/10/bits/basic_string.h ****       };
 165:/usr/include/c++/10/bits/basic_string.h **** 
 166:/usr/include/c++/10/bits/basic_string.h ****       _Alloc_hider	_M_dataplus;
 167:/usr/include/c++/10/bits/basic_string.h ****       size_type		_M_string_length;
 168:/usr/include/c++/10/bits/basic_string.h **** 
 169:/usr/include/c++/10/bits/basic_string.h ****       enum { _S_local_capacity = 15 / sizeof(_CharT) };
 170:/usr/include/c++/10/bits/basic_string.h **** 
 171:/usr/include/c++/10/bits/basic_string.h ****       union
 172:/usr/include/c++/10/bits/basic_string.h ****       {
 173:/usr/include/c++/10/bits/basic_string.h **** 	_CharT           _M_local_buf[_S_local_capacity + 1];
 174:/usr/include/c++/10/bits/basic_string.h **** 	size_type        _M_allocated_capacity;
 175:/usr/include/c++/10/bits/basic_string.h ****       };
 176:/usr/include/c++/10/bits/basic_string.h **** 
 177:/usr/include/c++/10/bits/basic_string.h ****       void
 178:/usr/include/c++/10/bits/basic_string.h ****       _M_data(pointer __p)
 179:/usr/include/c++/10/bits/basic_string.h ****       { _M_dataplus._M_p = __p; }
 180:/usr/include/c++/10/bits/basic_string.h **** 
 181:/usr/include/c++/10/bits/basic_string.h ****       void
 182:/usr/include/c++/10/bits/basic_string.h ****       _M_length(size_type __length)
 183:/usr/include/c++/10/bits/basic_string.h ****       { _M_string_length = __length; }
 184:/usr/include/c++/10/bits/basic_string.h **** 
 185:/usr/include/c++/10/bits/basic_string.h ****       pointer
 186:/usr/include/c++/10/bits/basic_string.h ****       _M_data() const
 187:/usr/include/c++/10/bits/basic_string.h ****       { return _M_dataplus._M_p; }
 188:/usr/include/c++/10/bits/basic_string.h **** 
 189:/usr/include/c++/10/bits/basic_string.h ****       pointer
 190:/usr/include/c++/10/bits/basic_string.h ****       _M_local_data()
 191:/usr/include/c++/10/bits/basic_string.h ****       {
 192:/usr/include/c++/10/bits/basic_string.h **** #if __cplusplus >= 201103L
 193:/usr/include/c++/10/bits/basic_string.h **** 	return std::pointer_traits<pointer>::pointer_to(*_M_local_buf);
 194:/usr/include/c++/10/bits/basic_string.h **** #else
 195:/usr/include/c++/10/bits/basic_string.h **** 	return pointer(_M_local_buf);
 196:/usr/include/c++/10/bits/basic_string.h **** #endif
 197:/usr/include/c++/10/bits/basic_string.h ****       }
 198:/usr/include/c++/10/bits/basic_string.h **** 
 199:/usr/include/c++/10/bits/basic_string.h ****       const_pointer
 200:/usr/include/c++/10/bits/basic_string.h ****       _M_local_data() const
 201:/usr/include/c++/10/bits/basic_string.h ****       {
 202:/usr/include/c++/10/bits/basic_string.h **** #if __cplusplus >= 201103L
 203:/usr/include/c++/10/bits/basic_string.h **** 	return std::pointer_traits<const_pointer>::pointer_to(*_M_local_buf);
 204:/usr/include/c++/10/bits/basic_string.h **** #else
 205:/usr/include/c++/10/bits/basic_string.h **** 	return const_pointer(_M_local_buf);
 206:/usr/include/c++/10/bits/basic_string.h **** #endif
 207:/usr/include/c++/10/bits/basic_string.h ****       }
 208:/usr/include/c++/10/bits/basic_string.h **** 
 209:/usr/include/c++/10/bits/basic_string.h ****       void
 210:/usr/include/c++/10/bits/basic_string.h ****       _M_capacity(size_type __capacity)
 211:/usr/include/c++/10/bits/basic_string.h ****       { _M_allocated_capacity = __capacity; }
 212:/usr/include/c++/10/bits/basic_string.h **** 
AARCH64 GAS  obj/Ch15_05.s 			page 75


 213:/usr/include/c++/10/bits/basic_string.h ****       void
 214:/usr/include/c++/10/bits/basic_string.h ****       _M_set_length(size_type __n)
 215:/usr/include/c++/10/bits/basic_string.h ****       {
 216:/usr/include/c++/10/bits/basic_string.h **** 	_M_length(__n);
 217:/usr/include/c++/10/bits/basic_string.h **** 	traits_type::assign(_M_data()[__n], _CharT());
 218:/usr/include/c++/10/bits/basic_string.h ****       }
 219:/usr/include/c++/10/bits/basic_string.h **** 
 220:/usr/include/c++/10/bits/basic_string.h ****       bool
 221:/usr/include/c++/10/bits/basic_string.h ****       _M_is_local() const
 222:/usr/include/c++/10/bits/basic_string.h ****       { return _M_data() == _M_local_data(); }
 223:/usr/include/c++/10/bits/basic_string.h **** 
 224:/usr/include/c++/10/bits/basic_string.h ****       // Create & Destroy
 225:/usr/include/c++/10/bits/basic_string.h ****       pointer
 226:/usr/include/c++/10/bits/basic_string.h ****       _M_create(size_type&, size_type);
 227:/usr/include/c++/10/bits/basic_string.h **** 
 228:/usr/include/c++/10/bits/basic_string.h ****       void
 229:/usr/include/c++/10/bits/basic_string.h ****       _M_dispose()
 230:/usr/include/c++/10/bits/basic_string.h ****       {
 231:/usr/include/c++/10/bits/basic_string.h **** 	if (!_M_is_local())
 232:/usr/include/c++/10/bits/basic_string.h **** 	  _M_destroy(_M_allocated_capacity);
 233:/usr/include/c++/10/bits/basic_string.h ****       }
 234:/usr/include/c++/10/bits/basic_string.h **** 
 235:/usr/include/c++/10/bits/basic_string.h ****       void
 236:/usr/include/c++/10/bits/basic_string.h ****       _M_destroy(size_type __size) throw()
 237:/usr/include/c++/10/bits/basic_string.h ****       { _Alloc_traits::deallocate(_M_get_allocator(), _M_data(), __size + 1); }
 238:/usr/include/c++/10/bits/basic_string.h **** 
 239:/usr/include/c++/10/bits/basic_string.h ****       // _M_construct_aux is used to implement the 21.3.1 para 15 which
 240:/usr/include/c++/10/bits/basic_string.h ****       // requires special behaviour if _InIterator is an integral type
 241:/usr/include/c++/10/bits/basic_string.h ****       template<typename _InIterator>
 242:/usr/include/c++/10/bits/basic_string.h ****         void
 243:/usr/include/c++/10/bits/basic_string.h ****         _M_construct_aux(_InIterator __beg, _InIterator __end,
 244:/usr/include/c++/10/bits/basic_string.h **** 			 std::__false_type)
 245:/usr/include/c++/10/bits/basic_string.h **** 	{
 246:/usr/include/c++/10/bits/basic_string.h ****           typedef typename iterator_traits<_InIterator>::iterator_category _Tag;
 247:/usr/include/c++/10/bits/basic_string.h ****           _M_construct(__beg, __end, _Tag());
 248:/usr/include/c++/10/bits/basic_string.h **** 	}
 249:/usr/include/c++/10/bits/basic_string.h **** 
 250:/usr/include/c++/10/bits/basic_string.h ****       // _GLIBCXX_RESOLVE_LIB_DEFECTS
 251:/usr/include/c++/10/bits/basic_string.h ****       // 438. Ambiguity in the "do the right thing" clause
 252:/usr/include/c++/10/bits/basic_string.h ****       template<typename _Integer>
 253:/usr/include/c++/10/bits/basic_string.h ****         void
 254:/usr/include/c++/10/bits/basic_string.h ****         _M_construct_aux(_Integer __beg, _Integer __end, std::__true_type)
 255:/usr/include/c++/10/bits/basic_string.h **** 	{ _M_construct_aux_2(static_cast<size_type>(__beg), __end); }
 256:/usr/include/c++/10/bits/basic_string.h **** 
 257:/usr/include/c++/10/bits/basic_string.h ****       void
 258:/usr/include/c++/10/bits/basic_string.h ****       _M_construct_aux_2(size_type __req, _CharT __c)
 259:/usr/include/c++/10/bits/basic_string.h ****       { _M_construct(__req, __c); }
 260:/usr/include/c++/10/bits/basic_string.h **** 
 261:/usr/include/c++/10/bits/basic_string.h ****       template<typename _InIterator>
 262:/usr/include/c++/10/bits/basic_string.h ****         void
 263:/usr/include/c++/10/bits/basic_string.h ****         _M_construct(_InIterator __beg, _InIterator __end)
 264:/usr/include/c++/10/bits/basic_string.h **** 	{
 265:/usr/include/c++/10/bits/basic_string.h **** 	  typedef typename std::__is_integer<_InIterator>::__type _Integral;
 266:/usr/include/c++/10/bits/basic_string.h **** 	  _M_construct_aux(__beg, __end, _Integral());
 267:/usr/include/c++/10/bits/basic_string.h ****         }
 268:/usr/include/c++/10/bits/basic_string.h **** 
 269:/usr/include/c++/10/bits/basic_string.h ****       // For Input Iterators, used in istreambuf_iterators, etc.
AARCH64 GAS  obj/Ch15_05.s 			page 76


 270:/usr/include/c++/10/bits/basic_string.h ****       template<typename _InIterator>
 271:/usr/include/c++/10/bits/basic_string.h ****         void
 272:/usr/include/c++/10/bits/basic_string.h ****         _M_construct(_InIterator __beg, _InIterator __end,
 273:/usr/include/c++/10/bits/basic_string.h **** 		     std::input_iterator_tag);
 274:/usr/include/c++/10/bits/basic_string.h **** 
 275:/usr/include/c++/10/bits/basic_string.h ****       // For forward_iterators up to random_access_iterators, used for
 276:/usr/include/c++/10/bits/basic_string.h ****       // string::iterator, _CharT*, etc.
 277:/usr/include/c++/10/bits/basic_string.h ****       template<typename _FwdIterator>
 278:/usr/include/c++/10/bits/basic_string.h ****         void
 279:/usr/include/c++/10/bits/basic_string.h ****         _M_construct(_FwdIterator __beg, _FwdIterator __end,
 280:/usr/include/c++/10/bits/basic_string.h **** 		     std::forward_iterator_tag);
 281:/usr/include/c++/10/bits/basic_string.h **** 
 282:/usr/include/c++/10/bits/basic_string.h ****       void
 283:/usr/include/c++/10/bits/basic_string.h ****       _M_construct(size_type __req, _CharT __c);
 284:/usr/include/c++/10/bits/basic_string.h **** 
 285:/usr/include/c++/10/bits/basic_string.h ****       allocator_type&
 286:/usr/include/c++/10/bits/basic_string.h ****       _M_get_allocator()
 287:/usr/include/c++/10/bits/basic_string.h ****       { return _M_dataplus; }
 288:/usr/include/c++/10/bits/basic_string.h **** 
 289:/usr/include/c++/10/bits/basic_string.h ****       const allocator_type&
 290:/usr/include/c++/10/bits/basic_string.h ****       _M_get_allocator() const
 291:/usr/include/c++/10/bits/basic_string.h ****       { return _M_dataplus; }
 292:/usr/include/c++/10/bits/basic_string.h **** 
 293:/usr/include/c++/10/bits/basic_string.h ****     private:
 294:/usr/include/c++/10/bits/basic_string.h **** 
 295:/usr/include/c++/10/bits/basic_string.h **** #ifdef _GLIBCXX_DISAMBIGUATE_REPLACE_INST
 296:/usr/include/c++/10/bits/basic_string.h ****       // The explicit instantiations in misc-inst.cc require this due to
 297:/usr/include/c++/10/bits/basic_string.h ****       // https://gcc.gnu.org/bugzilla/show_bug.cgi?id=64063
 298:/usr/include/c++/10/bits/basic_string.h ****       template<typename _Tp, bool _Requires =
 299:/usr/include/c++/10/bits/basic_string.h **** 	       !__are_same<_Tp, _CharT*>::__value
 300:/usr/include/c++/10/bits/basic_string.h **** 	       && !__are_same<_Tp, const _CharT*>::__value
 301:/usr/include/c++/10/bits/basic_string.h **** 	       && !__are_same<_Tp, iterator>::__value
 302:/usr/include/c++/10/bits/basic_string.h **** 	       && !__are_same<_Tp, const_iterator>::__value>
 303:/usr/include/c++/10/bits/basic_string.h **** 	struct __enable_if_not_native_iterator
 304:/usr/include/c++/10/bits/basic_string.h **** 	{ typedef basic_string& __type; };
 305:/usr/include/c++/10/bits/basic_string.h ****       template<typename _Tp>
 306:/usr/include/c++/10/bits/basic_string.h **** 	struct __enable_if_not_native_iterator<_Tp, false> { };
 307:/usr/include/c++/10/bits/basic_string.h **** #endif
 308:/usr/include/c++/10/bits/basic_string.h **** 
 309:/usr/include/c++/10/bits/basic_string.h ****       size_type
 310:/usr/include/c++/10/bits/basic_string.h ****       _M_check(size_type __pos, const char* __s) const
 311:/usr/include/c++/10/bits/basic_string.h ****       {
 312:/usr/include/c++/10/bits/basic_string.h **** 	if (__pos > this->size())
 313:/usr/include/c++/10/bits/basic_string.h **** 	  __throw_out_of_range_fmt(__N("%s: __pos (which is %zu) > "
 314:/usr/include/c++/10/bits/basic_string.h **** 				       "this->size() (which is %zu)"),
 315:/usr/include/c++/10/bits/basic_string.h **** 				   __s, __pos, this->size());
 316:/usr/include/c++/10/bits/basic_string.h **** 	return __pos;
 317:/usr/include/c++/10/bits/basic_string.h ****       }
 318:/usr/include/c++/10/bits/basic_string.h **** 
 319:/usr/include/c++/10/bits/basic_string.h ****       void
 320:/usr/include/c++/10/bits/basic_string.h ****       _M_check_length(size_type __n1, size_type __n2, const char* __s) const
 321:/usr/include/c++/10/bits/basic_string.h ****       {
 322:/usr/include/c++/10/bits/basic_string.h **** 	if (this->max_size() - (this->size() - __n1) < __n2)
 323:/usr/include/c++/10/bits/basic_string.h **** 	  __throw_length_error(__N(__s));
 324:/usr/include/c++/10/bits/basic_string.h ****       }
 325:/usr/include/c++/10/bits/basic_string.h **** 
 326:/usr/include/c++/10/bits/basic_string.h **** 
AARCH64 GAS  obj/Ch15_05.s 			page 77


 327:/usr/include/c++/10/bits/basic_string.h ****       // NB: _M_limit doesn't check for a bad __pos value.
 328:/usr/include/c++/10/bits/basic_string.h ****       size_type
 329:/usr/include/c++/10/bits/basic_string.h ****       _M_limit(size_type __pos, size_type __off) const _GLIBCXX_NOEXCEPT
 330:/usr/include/c++/10/bits/basic_string.h ****       {
 331:/usr/include/c++/10/bits/basic_string.h **** 	const bool __testoff =  __off < this->size() - __pos;
 332:/usr/include/c++/10/bits/basic_string.h **** 	return __testoff ? __off : this->size() - __pos;
 333:/usr/include/c++/10/bits/basic_string.h ****       }
 334:/usr/include/c++/10/bits/basic_string.h **** 
 335:/usr/include/c++/10/bits/basic_string.h ****       // True if _Rep and source do not overlap.
 336:/usr/include/c++/10/bits/basic_string.h ****       bool
 337:/usr/include/c++/10/bits/basic_string.h ****       _M_disjunct(const _CharT* __s) const _GLIBCXX_NOEXCEPT
 338:/usr/include/c++/10/bits/basic_string.h ****       {
 339:/usr/include/c++/10/bits/basic_string.h **** 	return (less<const _CharT*>()(__s, _M_data())
 340:/usr/include/c++/10/bits/basic_string.h **** 		|| less<const _CharT*>()(_M_data() + this->size(), __s));
 341:/usr/include/c++/10/bits/basic_string.h ****       }
 342:/usr/include/c++/10/bits/basic_string.h **** 
 343:/usr/include/c++/10/bits/basic_string.h ****       // When __n = 1 way faster than the general multichar
 344:/usr/include/c++/10/bits/basic_string.h ****       // traits_type::copy/move/assign.
 345:/usr/include/c++/10/bits/basic_string.h ****       static void
 346:/usr/include/c++/10/bits/basic_string.h ****       _S_copy(_CharT* __d, const _CharT* __s, size_type __n)
 347:/usr/include/c++/10/bits/basic_string.h ****       {
 348:/usr/include/c++/10/bits/basic_string.h **** 	if (__n == 1)
 349:/usr/include/c++/10/bits/basic_string.h **** 	  traits_type::assign(*__d, *__s);
 350:/usr/include/c++/10/bits/basic_string.h **** 	else
 351:/usr/include/c++/10/bits/basic_string.h **** 	  traits_type::copy(__d, __s, __n);
 352:/usr/include/c++/10/bits/basic_string.h ****       }
 353:/usr/include/c++/10/bits/basic_string.h **** 
 354:/usr/include/c++/10/bits/basic_string.h ****       static void
 355:/usr/include/c++/10/bits/basic_string.h ****       _S_move(_CharT* __d, const _CharT* __s, size_type __n)
 356:/usr/include/c++/10/bits/basic_string.h ****       {
 357:/usr/include/c++/10/bits/basic_string.h **** 	if (__n == 1)
 358:/usr/include/c++/10/bits/basic_string.h **** 	  traits_type::assign(*__d, *__s);
 359:/usr/include/c++/10/bits/basic_string.h **** 	else
 360:/usr/include/c++/10/bits/basic_string.h **** 	  traits_type::move(__d, __s, __n);
 361:/usr/include/c++/10/bits/basic_string.h ****       }
 362:/usr/include/c++/10/bits/basic_string.h **** 
 363:/usr/include/c++/10/bits/basic_string.h ****       static void
 364:/usr/include/c++/10/bits/basic_string.h ****       _S_assign(_CharT* __d, size_type __n, _CharT __c)
 365:/usr/include/c++/10/bits/basic_string.h ****       {
 366:/usr/include/c++/10/bits/basic_string.h **** 	if (__n == 1)
 367:/usr/include/c++/10/bits/basic_string.h **** 	  traits_type::assign(*__d, __c);
 368:/usr/include/c++/10/bits/basic_string.h **** 	else
 369:/usr/include/c++/10/bits/basic_string.h **** 	  traits_type::assign(__d, __n, __c);
 370:/usr/include/c++/10/bits/basic_string.h ****       }
 371:/usr/include/c++/10/bits/basic_string.h **** 
 372:/usr/include/c++/10/bits/basic_string.h ****       // _S_copy_chars is a separate template to permit specialization
 373:/usr/include/c++/10/bits/basic_string.h ****       // to optimize for the common case of pointers as iterators.
 374:/usr/include/c++/10/bits/basic_string.h ****       template<class _Iterator>
 375:/usr/include/c++/10/bits/basic_string.h ****         static void
 376:/usr/include/c++/10/bits/basic_string.h ****         _S_copy_chars(_CharT* __p, _Iterator __k1, _Iterator __k2)
 377:/usr/include/c++/10/bits/basic_string.h ****         {
 378:/usr/include/c++/10/bits/basic_string.h **** 	  for (; __k1 != __k2; ++__k1, (void)++__p)
 379:/usr/include/c++/10/bits/basic_string.h **** 	    traits_type::assign(*__p, *__k1); // These types are off.
 380:/usr/include/c++/10/bits/basic_string.h **** 	}
 381:/usr/include/c++/10/bits/basic_string.h **** 
 382:/usr/include/c++/10/bits/basic_string.h ****       static void
 383:/usr/include/c++/10/bits/basic_string.h ****       _S_copy_chars(_CharT* __p, iterator __k1, iterator __k2) _GLIBCXX_NOEXCEPT
AARCH64 GAS  obj/Ch15_05.s 			page 78


 384:/usr/include/c++/10/bits/basic_string.h ****       { _S_copy_chars(__p, __k1.base(), __k2.base()); }
 385:/usr/include/c++/10/bits/basic_string.h **** 
 386:/usr/include/c++/10/bits/basic_string.h ****       static void
 387:/usr/include/c++/10/bits/basic_string.h ****       _S_copy_chars(_CharT* __p, const_iterator __k1, const_iterator __k2)
 388:/usr/include/c++/10/bits/basic_string.h ****       _GLIBCXX_NOEXCEPT
 389:/usr/include/c++/10/bits/basic_string.h ****       { _S_copy_chars(__p, __k1.base(), __k2.base()); }
 390:/usr/include/c++/10/bits/basic_string.h **** 
 391:/usr/include/c++/10/bits/basic_string.h ****       static void
 392:/usr/include/c++/10/bits/basic_string.h ****       _S_copy_chars(_CharT* __p, _CharT* __k1, _CharT* __k2) _GLIBCXX_NOEXCEPT
 393:/usr/include/c++/10/bits/basic_string.h ****       { _S_copy(__p, __k1, __k2 - __k1); }
 394:/usr/include/c++/10/bits/basic_string.h **** 
 395:/usr/include/c++/10/bits/basic_string.h ****       static void
 396:/usr/include/c++/10/bits/basic_string.h ****       _S_copy_chars(_CharT* __p, const _CharT* __k1, const _CharT* __k2)
 397:/usr/include/c++/10/bits/basic_string.h ****       _GLIBCXX_NOEXCEPT
 398:/usr/include/c++/10/bits/basic_string.h ****       { _S_copy(__p, __k1, __k2 - __k1); }
 399:/usr/include/c++/10/bits/basic_string.h **** 
 400:/usr/include/c++/10/bits/basic_string.h ****       static int
 401:/usr/include/c++/10/bits/basic_string.h ****       _S_compare(size_type __n1, size_type __n2) _GLIBCXX_NOEXCEPT
 402:/usr/include/c++/10/bits/basic_string.h ****       {
 403:/usr/include/c++/10/bits/basic_string.h **** 	const difference_type __d = difference_type(__n1 - __n2);
 404:/usr/include/c++/10/bits/basic_string.h **** 
 405:/usr/include/c++/10/bits/basic_string.h **** 	if (__d > __gnu_cxx::__numeric_traits<int>::__max)
 406:/usr/include/c++/10/bits/basic_string.h **** 	  return __gnu_cxx::__numeric_traits<int>::__max;
 407:/usr/include/c++/10/bits/basic_string.h **** 	else if (__d < __gnu_cxx::__numeric_traits<int>::__min)
 408:/usr/include/c++/10/bits/basic_string.h **** 	  return __gnu_cxx::__numeric_traits<int>::__min;
 409:/usr/include/c++/10/bits/basic_string.h **** 	else
 410:/usr/include/c++/10/bits/basic_string.h **** 	  return int(__d);
 411:/usr/include/c++/10/bits/basic_string.h ****       }
 412:/usr/include/c++/10/bits/basic_string.h **** 
 413:/usr/include/c++/10/bits/basic_string.h ****       void
 414:/usr/include/c++/10/bits/basic_string.h ****       _M_assign(const basic_string&);
 415:/usr/include/c++/10/bits/basic_string.h **** 
 416:/usr/include/c++/10/bits/basic_string.h ****       void
 417:/usr/include/c++/10/bits/basic_string.h ****       _M_mutate(size_type __pos, size_type __len1, const _CharT* __s,
 418:/usr/include/c++/10/bits/basic_string.h **** 		size_type __len2);
 419:/usr/include/c++/10/bits/basic_string.h **** 
 420:/usr/include/c++/10/bits/basic_string.h ****       void
 421:/usr/include/c++/10/bits/basic_string.h ****       _M_erase(size_type __pos, size_type __n);
 422:/usr/include/c++/10/bits/basic_string.h **** 
 423:/usr/include/c++/10/bits/basic_string.h ****     public:
 424:/usr/include/c++/10/bits/basic_string.h ****       // Construct/copy/destroy:
 425:/usr/include/c++/10/bits/basic_string.h ****       // NB: We overload ctors in some cases instead of using default
 426:/usr/include/c++/10/bits/basic_string.h ****       // arguments, per 17.4.4.4 para. 2 item 2.
 427:/usr/include/c++/10/bits/basic_string.h **** 
 428:/usr/include/c++/10/bits/basic_string.h ****       /**
 429:/usr/include/c++/10/bits/basic_string.h ****        *  @brief  Default constructor creates an empty string.
 430:/usr/include/c++/10/bits/basic_string.h ****        */
 431:/usr/include/c++/10/bits/basic_string.h ****       basic_string()
 432:/usr/include/c++/10/bits/basic_string.h ****       _GLIBCXX_NOEXCEPT_IF(is_nothrow_default_constructible<_Alloc>::value)
 433:/usr/include/c++/10/bits/basic_string.h ****       : _M_dataplus(_M_local_data())
 434:/usr/include/c++/10/bits/basic_string.h ****       { _M_set_length(0); }
 435:/usr/include/c++/10/bits/basic_string.h **** 
 436:/usr/include/c++/10/bits/basic_string.h ****       /**
 437:/usr/include/c++/10/bits/basic_string.h ****        *  @brief  Construct an empty string using allocator @a a.
 438:/usr/include/c++/10/bits/basic_string.h ****        */
 439:/usr/include/c++/10/bits/basic_string.h ****       explicit
 440:/usr/include/c++/10/bits/basic_string.h ****       basic_string(const _Alloc& __a) _GLIBCXX_NOEXCEPT
AARCH64 GAS  obj/Ch15_05.s 			page 79


 441:/usr/include/c++/10/bits/basic_string.h ****       : _M_dataplus(_M_local_data(), __a)
 442:/usr/include/c++/10/bits/basic_string.h ****       { _M_set_length(0); }
 443:/usr/include/c++/10/bits/basic_string.h **** 
 444:/usr/include/c++/10/bits/basic_string.h ****       /**
 445:/usr/include/c++/10/bits/basic_string.h ****        *  @brief  Construct string with copy of value of @a __str.
 446:/usr/include/c++/10/bits/basic_string.h ****        *  @param  __str  Source string.
 447:/usr/include/c++/10/bits/basic_string.h ****        */
 448:/usr/include/c++/10/bits/basic_string.h ****       basic_string(const basic_string& __str)
 449:/usr/include/c++/10/bits/basic_string.h ****       : _M_dataplus(_M_local_data(),
 450:/usr/include/c++/10/bits/basic_string.h **** 		    _Alloc_traits::_S_select_on_copy(__str._M_get_allocator()))
 451:/usr/include/c++/10/bits/basic_string.h ****       { _M_construct(__str._M_data(), __str._M_data() + __str.length()); }
 452:/usr/include/c++/10/bits/basic_string.h **** 
 453:/usr/include/c++/10/bits/basic_string.h ****       // _GLIBCXX_RESOLVE_LIB_DEFECTS
 454:/usr/include/c++/10/bits/basic_string.h ****       // 2583. no way to supply an allocator for basic_string(str, pos)
 455:/usr/include/c++/10/bits/basic_string.h ****       /**
 456:/usr/include/c++/10/bits/basic_string.h ****        *  @brief  Construct string as copy of a substring.
 457:/usr/include/c++/10/bits/basic_string.h ****        *  @param  __str  Source string.
 458:/usr/include/c++/10/bits/basic_string.h ****        *  @param  __pos  Index of first character to copy from.
 459:/usr/include/c++/10/bits/basic_string.h ****        *  @param  __a  Allocator to use.
 460:/usr/include/c++/10/bits/basic_string.h ****        */
 461:/usr/include/c++/10/bits/basic_string.h ****       basic_string(const basic_string& __str, size_type __pos,
 462:/usr/include/c++/10/bits/basic_string.h **** 		   const _Alloc& __a = _Alloc())
 463:/usr/include/c++/10/bits/basic_string.h ****       : _M_dataplus(_M_local_data(), __a)
 464:/usr/include/c++/10/bits/basic_string.h ****       {
 465:/usr/include/c++/10/bits/basic_string.h **** 	const _CharT* __start = __str._M_data()
 466:/usr/include/c++/10/bits/basic_string.h **** 	  + __str._M_check(__pos, "basic_string::basic_string");
 467:/usr/include/c++/10/bits/basic_string.h **** 	_M_construct(__start, __start + __str._M_limit(__pos, npos));
 468:/usr/include/c++/10/bits/basic_string.h ****       }
 469:/usr/include/c++/10/bits/basic_string.h **** 
 470:/usr/include/c++/10/bits/basic_string.h ****       /**
 471:/usr/include/c++/10/bits/basic_string.h ****        *  @brief  Construct string as copy of a substring.
 472:/usr/include/c++/10/bits/basic_string.h ****        *  @param  __str  Source string.
 473:/usr/include/c++/10/bits/basic_string.h ****        *  @param  __pos  Index of first character to copy from.
 474:/usr/include/c++/10/bits/basic_string.h ****        *  @param  __n  Number of characters to copy.
 475:/usr/include/c++/10/bits/basic_string.h ****        */
 476:/usr/include/c++/10/bits/basic_string.h ****       basic_string(const basic_string& __str, size_type __pos,
 477:/usr/include/c++/10/bits/basic_string.h **** 		   size_type __n)
 478:/usr/include/c++/10/bits/basic_string.h ****       : _M_dataplus(_M_local_data())
 479:/usr/include/c++/10/bits/basic_string.h ****       {
 480:/usr/include/c++/10/bits/basic_string.h **** 	const _CharT* __start = __str._M_data()
 481:/usr/include/c++/10/bits/basic_string.h **** 	  + __str._M_check(__pos, "basic_string::basic_string");
 482:/usr/include/c++/10/bits/basic_string.h **** 	_M_construct(__start, __start + __str._M_limit(__pos, __n));
 483:/usr/include/c++/10/bits/basic_string.h ****       }
 484:/usr/include/c++/10/bits/basic_string.h **** 
 485:/usr/include/c++/10/bits/basic_string.h ****       /**
 486:/usr/include/c++/10/bits/basic_string.h ****        *  @brief  Construct string as copy of a substring.
 487:/usr/include/c++/10/bits/basic_string.h ****        *  @param  __str  Source string.
 488:/usr/include/c++/10/bits/basic_string.h ****        *  @param  __pos  Index of first character to copy from.
 489:/usr/include/c++/10/bits/basic_string.h ****        *  @param  __n  Number of characters to copy.
 490:/usr/include/c++/10/bits/basic_string.h ****        *  @param  __a  Allocator to use.
 491:/usr/include/c++/10/bits/basic_string.h ****        */
 492:/usr/include/c++/10/bits/basic_string.h ****       basic_string(const basic_string& __str, size_type __pos,
 493:/usr/include/c++/10/bits/basic_string.h **** 		   size_type __n, const _Alloc& __a)
 494:/usr/include/c++/10/bits/basic_string.h ****       : _M_dataplus(_M_local_data(), __a)
 495:/usr/include/c++/10/bits/basic_string.h ****       {
 496:/usr/include/c++/10/bits/basic_string.h **** 	const _CharT* __start
 497:/usr/include/c++/10/bits/basic_string.h **** 	  = __str._M_data() + __str._M_check(__pos, "string::string");
AARCH64 GAS  obj/Ch15_05.s 			page 80


 498:/usr/include/c++/10/bits/basic_string.h **** 	_M_construct(__start, __start + __str._M_limit(__pos, __n));
 499:/usr/include/c++/10/bits/basic_string.h ****       }
 500:/usr/include/c++/10/bits/basic_string.h **** 
 501:/usr/include/c++/10/bits/basic_string.h ****       /**
 502:/usr/include/c++/10/bits/basic_string.h ****        *  @brief  Construct string initialized by a character %array.
 503:/usr/include/c++/10/bits/basic_string.h ****        *  @param  __s  Source character %array.
 504:/usr/include/c++/10/bits/basic_string.h ****        *  @param  __n  Number of characters to copy.
 505:/usr/include/c++/10/bits/basic_string.h ****        *  @param  __a  Allocator to use (default is default allocator).
 506:/usr/include/c++/10/bits/basic_string.h ****        *
 507:/usr/include/c++/10/bits/basic_string.h ****        *  NB: @a __s must have at least @a __n characters, &apos;\\0&apos;
 508:/usr/include/c++/10/bits/basic_string.h ****        *  has no special meaning.
 509:/usr/include/c++/10/bits/basic_string.h ****        */
 510:/usr/include/c++/10/bits/basic_string.h ****       basic_string(const _CharT* __s, size_type __n,
 511:/usr/include/c++/10/bits/basic_string.h **** 		   const _Alloc& __a = _Alloc())
 512:/usr/include/c++/10/bits/basic_string.h ****       : _M_dataplus(_M_local_data(), __a)
 513:/usr/include/c++/10/bits/basic_string.h ****       { _M_construct(__s, __s + __n); }
 514:/usr/include/c++/10/bits/basic_string.h **** 
 515:/usr/include/c++/10/bits/basic_string.h ****       /**
 516:/usr/include/c++/10/bits/basic_string.h ****        *  @brief  Construct string as copy of a C string.
 517:/usr/include/c++/10/bits/basic_string.h ****        *  @param  __s  Source C string.
 518:/usr/include/c++/10/bits/basic_string.h ****        *  @param  __a  Allocator to use (default is default allocator).
 519:/usr/include/c++/10/bits/basic_string.h ****        */
 520:/usr/include/c++/10/bits/basic_string.h **** #if __cpp_deduction_guides && ! defined _GLIBCXX_DEFINING_STRING_INSTANTIATIONS
 521:/usr/include/c++/10/bits/basic_string.h ****       // _GLIBCXX_RESOLVE_LIB_DEFECTS
 522:/usr/include/c++/10/bits/basic_string.h ****       // 3076. basic_string CTAD ambiguity
 523:/usr/include/c++/10/bits/basic_string.h ****       template<typename = _RequireAllocator<_Alloc>>
 524:/usr/include/c++/10/bits/basic_string.h **** #endif
 525:/usr/include/c++/10/bits/basic_string.h ****       basic_string(const _CharT* __s, const _Alloc& __a = _Alloc())
 2696              		.loc 6 525 7 is_stmt 1 view .LVU745
 2697              	.LBB1730:
 2698              	.LBB1731:
 2699              	.LBI1731:
 190:/usr/include/c++/10/bits/basic_string.h ****       {
 2700              		.loc 6 190 7 view .LVU746
 190:/usr/include/c++/10/bits/basic_string.h ****       {
 2701              		.loc 6 190 7 is_stmt 0 view .LVU747
 2702              	.LBE1731:
 2703              	.LBB1732:
 2704              	.LBI1732:
 156:/usr/include/c++/10/bits/basic_string.h **** 	: allocator_type(__a), _M_p(__dat) { }
 2705              		.loc 6 156 2 is_stmt 1 view .LVU748
 2706              	.LBB1733:
 2707              	.LBB1734:
 2708              	.LBB1735:
 2709              	.LBI1735:
 145:/usr/include/c++/10/bits/allocator.h **** 
 146:/usr/include/c++/10/bits/allocator.h ****       _GLIBCXX20_CONSTEXPR
 147:/usr/include/c++/10/bits/allocator.h ****       allocator(const allocator& __a) _GLIBCXX_NOTHROW
 2710              		.loc 4 147 7 view .LVU749
 2711              	.LBB1736:
 2712              	.LBI1736:
  80:/usr/include/c++/10/ext/new_allocator.h **** 
  81:/usr/include/c++/10/ext/new_allocator.h ****       _GLIBCXX20_CONSTEXPR
  82:/usr/include/c++/10/ext/new_allocator.h ****       new_allocator(const new_allocator&) _GLIBCXX_USE_NOEXCEPT { }
 2713              		.loc 5 82 7 view .LVU750
 2714              		.loc 5 82 7 is_stmt 0 view .LVU751
 2715              	.LBE1736:
AARCH64 GAS  obj/Ch15_05.s 			page 81


 2716              	.LBE1735:
 2717              	.LBE1734:
 2718              	.LBE1733:
 2719              	.LBE1732:
 2720              	.LBB1743:
 2721              	.LBB1744:
 2722              	.LBB1745:
 2723              	.LBB1746:
 2724              	.LBB1747:
 2725              	.LBB1748:
 2726              		.file 7 "/usr/include/c++/10/bits/basic_string.tcc"
   1:/usr/include/c++/10/bits/basic_string.tcc **** // Components for manipulating sequences of characters -*- C++ -*-
   2:/usr/include/c++/10/bits/basic_string.tcc **** 
   3:/usr/include/c++/10/bits/basic_string.tcc **** // Copyright (C) 1997-2020 Free Software Foundation, Inc.
   4:/usr/include/c++/10/bits/basic_string.tcc **** //
   5:/usr/include/c++/10/bits/basic_string.tcc **** // This file is part of the GNU ISO C++ Library.  This library is free
   6:/usr/include/c++/10/bits/basic_string.tcc **** // software; you can redistribute it and/or modify it under the
   7:/usr/include/c++/10/bits/basic_string.tcc **** // terms of the GNU General Public License as published by the
   8:/usr/include/c++/10/bits/basic_string.tcc **** // Free Software Foundation; either version 3, or (at your option)
   9:/usr/include/c++/10/bits/basic_string.tcc **** // any later version.
  10:/usr/include/c++/10/bits/basic_string.tcc **** 
  11:/usr/include/c++/10/bits/basic_string.tcc **** // This library is distributed in the hope that it will be useful,
  12:/usr/include/c++/10/bits/basic_string.tcc **** // but WITHOUT ANY WARRANTY; without even the implied warranty of
  13:/usr/include/c++/10/bits/basic_string.tcc **** // MERCHANTABILITY or FITNESS FOR A PARTICULAR PURPOSE.  See the
  14:/usr/include/c++/10/bits/basic_string.tcc **** // GNU General Public License for more details.
  15:/usr/include/c++/10/bits/basic_string.tcc **** 
  16:/usr/include/c++/10/bits/basic_string.tcc **** // Under Section 7 of GPL version 3, you are granted additional
  17:/usr/include/c++/10/bits/basic_string.tcc **** // permissions described in the GCC Runtime Library Exception, version
  18:/usr/include/c++/10/bits/basic_string.tcc **** // 3.1, as published by the Free Software Foundation.
  19:/usr/include/c++/10/bits/basic_string.tcc **** 
  20:/usr/include/c++/10/bits/basic_string.tcc **** // You should have received a copy of the GNU General Public License and
  21:/usr/include/c++/10/bits/basic_string.tcc **** // a copy of the GCC Runtime Library Exception along with this program;
  22:/usr/include/c++/10/bits/basic_string.tcc **** // see the files COPYING3 and COPYING.RUNTIME respectively.  If not, see
  23:/usr/include/c++/10/bits/basic_string.tcc **** // <http://www.gnu.org/licenses/>.
  24:/usr/include/c++/10/bits/basic_string.tcc **** 
  25:/usr/include/c++/10/bits/basic_string.tcc **** /** @file bits/basic_string.tcc
  26:/usr/include/c++/10/bits/basic_string.tcc ****  *  This is an internal header file, included by other library headers.
  27:/usr/include/c++/10/bits/basic_string.tcc ****  *  Do not attempt to use it directly. @headername{string}
  28:/usr/include/c++/10/bits/basic_string.tcc ****  */
  29:/usr/include/c++/10/bits/basic_string.tcc **** 
  30:/usr/include/c++/10/bits/basic_string.tcc **** //
  31:/usr/include/c++/10/bits/basic_string.tcc **** // ISO C++ 14882: 21  Strings library
  32:/usr/include/c++/10/bits/basic_string.tcc **** //
  33:/usr/include/c++/10/bits/basic_string.tcc **** 
  34:/usr/include/c++/10/bits/basic_string.tcc **** // Written by Jason Merrill based upon the specification by Takanori Adachi
  35:/usr/include/c++/10/bits/basic_string.tcc **** // in ANSI X3J16/94-0013R2.  Rewritten by Nathan Myers to ISO-14882.
  36:/usr/include/c++/10/bits/basic_string.tcc **** // Non-reference-counted implementation written by Paolo Carlini and
  37:/usr/include/c++/10/bits/basic_string.tcc **** // updated by Jonathan Wakely for ISO-14882-2011.
  38:/usr/include/c++/10/bits/basic_string.tcc **** 
  39:/usr/include/c++/10/bits/basic_string.tcc **** #ifndef _BASIC_STRING_TCC
  40:/usr/include/c++/10/bits/basic_string.tcc **** #define _BASIC_STRING_TCC 1
  41:/usr/include/c++/10/bits/basic_string.tcc **** 
  42:/usr/include/c++/10/bits/basic_string.tcc **** #pragma GCC system_header
  43:/usr/include/c++/10/bits/basic_string.tcc **** 
  44:/usr/include/c++/10/bits/basic_string.tcc **** #include <bits/cxxabi_forced.h>
  45:/usr/include/c++/10/bits/basic_string.tcc **** 
  46:/usr/include/c++/10/bits/basic_string.tcc **** namespace std _GLIBCXX_VISIBILITY(default)
AARCH64 GAS  obj/Ch15_05.s 			page 82


  47:/usr/include/c++/10/bits/basic_string.tcc **** {
  48:/usr/include/c++/10/bits/basic_string.tcc **** _GLIBCXX_BEGIN_NAMESPACE_VERSION
  49:/usr/include/c++/10/bits/basic_string.tcc **** 
  50:/usr/include/c++/10/bits/basic_string.tcc **** #if _GLIBCXX_USE_CXX11_ABI
  51:/usr/include/c++/10/bits/basic_string.tcc **** 
  52:/usr/include/c++/10/bits/basic_string.tcc ****   template<typename _CharT, typename _Traits, typename _Alloc>
  53:/usr/include/c++/10/bits/basic_string.tcc ****     const typename basic_string<_CharT, _Traits, _Alloc>::size_type
  54:/usr/include/c++/10/bits/basic_string.tcc ****     basic_string<_CharT, _Traits, _Alloc>::npos;
  55:/usr/include/c++/10/bits/basic_string.tcc **** 
  56:/usr/include/c++/10/bits/basic_string.tcc ****   template<typename _CharT, typename _Traits, typename _Alloc>
  57:/usr/include/c++/10/bits/basic_string.tcc ****     void
  58:/usr/include/c++/10/bits/basic_string.tcc ****     basic_string<_CharT, _Traits, _Alloc>::
  59:/usr/include/c++/10/bits/basic_string.tcc ****     swap(basic_string& __s) _GLIBCXX_NOEXCEPT
  60:/usr/include/c++/10/bits/basic_string.tcc ****     {
  61:/usr/include/c++/10/bits/basic_string.tcc ****       if (this == &__s)
  62:/usr/include/c++/10/bits/basic_string.tcc **** 	return;
  63:/usr/include/c++/10/bits/basic_string.tcc **** 
  64:/usr/include/c++/10/bits/basic_string.tcc ****       _Alloc_traits::_S_on_swap(_M_get_allocator(), __s._M_get_allocator());
  65:/usr/include/c++/10/bits/basic_string.tcc **** 
  66:/usr/include/c++/10/bits/basic_string.tcc ****       if (_M_is_local())
  67:/usr/include/c++/10/bits/basic_string.tcc **** 	if (__s._M_is_local())
  68:/usr/include/c++/10/bits/basic_string.tcc **** 	  {
  69:/usr/include/c++/10/bits/basic_string.tcc **** 	    if (length() && __s.length())
  70:/usr/include/c++/10/bits/basic_string.tcc **** 	      {
  71:/usr/include/c++/10/bits/basic_string.tcc **** 		_CharT __tmp_data[_S_local_capacity + 1];
  72:/usr/include/c++/10/bits/basic_string.tcc **** 		traits_type::copy(__tmp_data, __s._M_local_buf,
  73:/usr/include/c++/10/bits/basic_string.tcc **** 				  _S_local_capacity + 1);
  74:/usr/include/c++/10/bits/basic_string.tcc **** 		traits_type::copy(__s._M_local_buf, _M_local_buf,
  75:/usr/include/c++/10/bits/basic_string.tcc **** 				  _S_local_capacity + 1);
  76:/usr/include/c++/10/bits/basic_string.tcc **** 		traits_type::copy(_M_local_buf, __tmp_data,
  77:/usr/include/c++/10/bits/basic_string.tcc **** 				  _S_local_capacity + 1);
  78:/usr/include/c++/10/bits/basic_string.tcc **** 	      }
  79:/usr/include/c++/10/bits/basic_string.tcc **** 	    else if (__s.length())
  80:/usr/include/c++/10/bits/basic_string.tcc **** 	      {
  81:/usr/include/c++/10/bits/basic_string.tcc **** 		traits_type::copy(_M_local_buf, __s._M_local_buf,
  82:/usr/include/c++/10/bits/basic_string.tcc **** 				  _S_local_capacity + 1);
  83:/usr/include/c++/10/bits/basic_string.tcc **** 		_M_length(__s.length());
  84:/usr/include/c++/10/bits/basic_string.tcc **** 		__s._M_set_length(0);
  85:/usr/include/c++/10/bits/basic_string.tcc **** 		return;
  86:/usr/include/c++/10/bits/basic_string.tcc **** 	      }
  87:/usr/include/c++/10/bits/basic_string.tcc **** 	    else if (length())
  88:/usr/include/c++/10/bits/basic_string.tcc **** 	      {
  89:/usr/include/c++/10/bits/basic_string.tcc **** 		traits_type::copy(__s._M_local_buf, _M_local_buf,
  90:/usr/include/c++/10/bits/basic_string.tcc **** 				  _S_local_capacity + 1);
  91:/usr/include/c++/10/bits/basic_string.tcc **** 		__s._M_length(length());
  92:/usr/include/c++/10/bits/basic_string.tcc **** 		_M_set_length(0);
  93:/usr/include/c++/10/bits/basic_string.tcc **** 		return;
  94:/usr/include/c++/10/bits/basic_string.tcc **** 	      }
  95:/usr/include/c++/10/bits/basic_string.tcc **** 	  }
  96:/usr/include/c++/10/bits/basic_string.tcc **** 	else
  97:/usr/include/c++/10/bits/basic_string.tcc **** 	  {
  98:/usr/include/c++/10/bits/basic_string.tcc **** 	    const size_type __tmp_capacity = __s._M_allocated_capacity;
  99:/usr/include/c++/10/bits/basic_string.tcc **** 	    traits_type::copy(__s._M_local_buf, _M_local_buf,
 100:/usr/include/c++/10/bits/basic_string.tcc **** 			      _S_local_capacity + 1);
 101:/usr/include/c++/10/bits/basic_string.tcc **** 	    _M_data(__s._M_data());
 102:/usr/include/c++/10/bits/basic_string.tcc **** 	    __s._M_data(__s._M_local_buf);
 103:/usr/include/c++/10/bits/basic_string.tcc **** 	    _M_capacity(__tmp_capacity);
AARCH64 GAS  obj/Ch15_05.s 			page 83


 104:/usr/include/c++/10/bits/basic_string.tcc **** 	  }
 105:/usr/include/c++/10/bits/basic_string.tcc ****       else
 106:/usr/include/c++/10/bits/basic_string.tcc **** 	{
 107:/usr/include/c++/10/bits/basic_string.tcc **** 	  const size_type __tmp_capacity = _M_allocated_capacity;
 108:/usr/include/c++/10/bits/basic_string.tcc **** 	  if (__s._M_is_local())
 109:/usr/include/c++/10/bits/basic_string.tcc **** 	    {
 110:/usr/include/c++/10/bits/basic_string.tcc **** 	      traits_type::copy(_M_local_buf, __s._M_local_buf,
 111:/usr/include/c++/10/bits/basic_string.tcc **** 				_S_local_capacity + 1);
 112:/usr/include/c++/10/bits/basic_string.tcc **** 	      __s._M_data(_M_data());
 113:/usr/include/c++/10/bits/basic_string.tcc **** 	      _M_data(_M_local_buf);
 114:/usr/include/c++/10/bits/basic_string.tcc **** 	    }
 115:/usr/include/c++/10/bits/basic_string.tcc **** 	  else
 116:/usr/include/c++/10/bits/basic_string.tcc **** 	    {
 117:/usr/include/c++/10/bits/basic_string.tcc **** 	      pointer __tmp_ptr = _M_data();
 118:/usr/include/c++/10/bits/basic_string.tcc **** 	      _M_data(__s._M_data());
 119:/usr/include/c++/10/bits/basic_string.tcc **** 	      __s._M_data(__tmp_ptr);
 120:/usr/include/c++/10/bits/basic_string.tcc **** 	      _M_capacity(__s._M_allocated_capacity);
 121:/usr/include/c++/10/bits/basic_string.tcc **** 	    }
 122:/usr/include/c++/10/bits/basic_string.tcc **** 	  __s._M_capacity(__tmp_capacity);
 123:/usr/include/c++/10/bits/basic_string.tcc **** 	}
 124:/usr/include/c++/10/bits/basic_string.tcc **** 
 125:/usr/include/c++/10/bits/basic_string.tcc ****       const size_type __tmp_length = length();
 126:/usr/include/c++/10/bits/basic_string.tcc ****       _M_length(__s.length());
 127:/usr/include/c++/10/bits/basic_string.tcc ****       __s._M_length(__tmp_length);
 128:/usr/include/c++/10/bits/basic_string.tcc ****     }
 129:/usr/include/c++/10/bits/basic_string.tcc **** 
 130:/usr/include/c++/10/bits/basic_string.tcc ****   template<typename _CharT, typename _Traits, typename _Alloc>
 131:/usr/include/c++/10/bits/basic_string.tcc ****     typename basic_string<_CharT, _Traits, _Alloc>::pointer
 132:/usr/include/c++/10/bits/basic_string.tcc ****     basic_string<_CharT, _Traits, _Alloc>::
 133:/usr/include/c++/10/bits/basic_string.tcc ****     _M_create(size_type& __capacity, size_type __old_capacity)
 134:/usr/include/c++/10/bits/basic_string.tcc ****     {
 135:/usr/include/c++/10/bits/basic_string.tcc ****       // _GLIBCXX_RESOLVE_LIB_DEFECTS
 136:/usr/include/c++/10/bits/basic_string.tcc ****       // 83.  String::npos vs. string::max_size()
 137:/usr/include/c++/10/bits/basic_string.tcc ****       if (__capacity > max_size())
 138:/usr/include/c++/10/bits/basic_string.tcc **** 	std::__throw_length_error(__N("basic_string::_M_create"));
 139:/usr/include/c++/10/bits/basic_string.tcc **** 
 140:/usr/include/c++/10/bits/basic_string.tcc ****       // The below implements an exponential growth policy, necessary to
 141:/usr/include/c++/10/bits/basic_string.tcc ****       // meet amortized linear time requirements of the library: see
 142:/usr/include/c++/10/bits/basic_string.tcc ****       // http://gcc.gnu.org/ml/libstdc++/2001-07/msg00085.html.
 143:/usr/include/c++/10/bits/basic_string.tcc ****       if (__capacity > __old_capacity && __capacity < 2 * __old_capacity)
 144:/usr/include/c++/10/bits/basic_string.tcc **** 	{
 145:/usr/include/c++/10/bits/basic_string.tcc **** 	  __capacity = 2 * __old_capacity;
 146:/usr/include/c++/10/bits/basic_string.tcc **** 	  // Never allocate a string bigger than max_size.
 147:/usr/include/c++/10/bits/basic_string.tcc **** 	  if (__capacity > max_size())
 148:/usr/include/c++/10/bits/basic_string.tcc **** 	    __capacity = max_size();
 149:/usr/include/c++/10/bits/basic_string.tcc **** 	}
 150:/usr/include/c++/10/bits/basic_string.tcc **** 
 151:/usr/include/c++/10/bits/basic_string.tcc ****       // NB: Need an array of char_type[__capacity], plus a terminating
 152:/usr/include/c++/10/bits/basic_string.tcc ****       // null char_type() element.
 153:/usr/include/c++/10/bits/basic_string.tcc ****       return _Alloc_traits::allocate(_M_get_allocator(), __capacity + 1);
 154:/usr/include/c++/10/bits/basic_string.tcc ****     }
 155:/usr/include/c++/10/bits/basic_string.tcc **** 
 156:/usr/include/c++/10/bits/basic_string.tcc ****   // NB: This is the special case for Input Iterators, used in
 157:/usr/include/c++/10/bits/basic_string.tcc ****   // istreambuf_iterators, etc.
 158:/usr/include/c++/10/bits/basic_string.tcc ****   // Input Iterators have a cost structure very different from
 159:/usr/include/c++/10/bits/basic_string.tcc ****   // pointers, calling for a different coding style.
 160:/usr/include/c++/10/bits/basic_string.tcc ****   template<typename _CharT, typename _Traits, typename _Alloc>
AARCH64 GAS  obj/Ch15_05.s 			page 84


 161:/usr/include/c++/10/bits/basic_string.tcc ****     template<typename _InIterator>
 162:/usr/include/c++/10/bits/basic_string.tcc ****       void
 163:/usr/include/c++/10/bits/basic_string.tcc ****       basic_string<_CharT, _Traits, _Alloc>::
 164:/usr/include/c++/10/bits/basic_string.tcc ****       _M_construct(_InIterator __beg, _InIterator __end,
 165:/usr/include/c++/10/bits/basic_string.tcc **** 		   std::input_iterator_tag)
 166:/usr/include/c++/10/bits/basic_string.tcc ****       {
 167:/usr/include/c++/10/bits/basic_string.tcc **** 	size_type __len = 0;
 168:/usr/include/c++/10/bits/basic_string.tcc **** 	size_type __capacity = size_type(_S_local_capacity);
 169:/usr/include/c++/10/bits/basic_string.tcc **** 
 170:/usr/include/c++/10/bits/basic_string.tcc **** 	while (__beg != __end && __len < __capacity)
 171:/usr/include/c++/10/bits/basic_string.tcc **** 	  {
 172:/usr/include/c++/10/bits/basic_string.tcc **** 	    _M_data()[__len++] = *__beg;
 173:/usr/include/c++/10/bits/basic_string.tcc **** 	    ++__beg;
 174:/usr/include/c++/10/bits/basic_string.tcc **** 	  }
 175:/usr/include/c++/10/bits/basic_string.tcc **** 
 176:/usr/include/c++/10/bits/basic_string.tcc **** 	__try
 177:/usr/include/c++/10/bits/basic_string.tcc **** 	  {
 178:/usr/include/c++/10/bits/basic_string.tcc **** 	    while (__beg != __end)
 179:/usr/include/c++/10/bits/basic_string.tcc **** 	      {
 180:/usr/include/c++/10/bits/basic_string.tcc **** 		if (__len == __capacity)
 181:/usr/include/c++/10/bits/basic_string.tcc **** 		  {
 182:/usr/include/c++/10/bits/basic_string.tcc **** 		    // Allocate more space.
 183:/usr/include/c++/10/bits/basic_string.tcc **** 		    __capacity = __len + 1;
 184:/usr/include/c++/10/bits/basic_string.tcc **** 		    pointer __another = _M_create(__capacity, __len);
 185:/usr/include/c++/10/bits/basic_string.tcc **** 		    this->_S_copy(__another, _M_data(), __len);
 186:/usr/include/c++/10/bits/basic_string.tcc **** 		    _M_dispose();
 187:/usr/include/c++/10/bits/basic_string.tcc **** 		    _M_data(__another);
 188:/usr/include/c++/10/bits/basic_string.tcc **** 		    _M_capacity(__capacity);
 189:/usr/include/c++/10/bits/basic_string.tcc **** 		  }
 190:/usr/include/c++/10/bits/basic_string.tcc **** 		_M_data()[__len++] = *__beg;
 191:/usr/include/c++/10/bits/basic_string.tcc **** 		++__beg;
 192:/usr/include/c++/10/bits/basic_string.tcc **** 	      }
 193:/usr/include/c++/10/bits/basic_string.tcc **** 	  }
 194:/usr/include/c++/10/bits/basic_string.tcc **** 	__catch(...)
 195:/usr/include/c++/10/bits/basic_string.tcc **** 	  {
 196:/usr/include/c++/10/bits/basic_string.tcc **** 	    _M_dispose();
 197:/usr/include/c++/10/bits/basic_string.tcc **** 	    __throw_exception_again;
 198:/usr/include/c++/10/bits/basic_string.tcc **** 	  }
 199:/usr/include/c++/10/bits/basic_string.tcc **** 
 200:/usr/include/c++/10/bits/basic_string.tcc **** 	_M_set_length(__len);
 201:/usr/include/c++/10/bits/basic_string.tcc ****       }
 202:/usr/include/c++/10/bits/basic_string.tcc **** 
 203:/usr/include/c++/10/bits/basic_string.tcc ****   template<typename _CharT, typename _Traits, typename _Alloc>
 204:/usr/include/c++/10/bits/basic_string.tcc ****     template<typename _InIterator>
 205:/usr/include/c++/10/bits/basic_string.tcc ****       void
 206:/usr/include/c++/10/bits/basic_string.tcc ****       basic_string<_CharT, _Traits, _Alloc>::
 207:/usr/include/c++/10/bits/basic_string.tcc ****       _M_construct(_InIterator __beg, _InIterator __end,
 208:/usr/include/c++/10/bits/basic_string.tcc **** 		   std::forward_iterator_tag)
 209:/usr/include/c++/10/bits/basic_string.tcc ****       {
 210:/usr/include/c++/10/bits/basic_string.tcc **** 	// NB: Not required, but considered best practice.
 211:/usr/include/c++/10/bits/basic_string.tcc **** 	if (__gnu_cxx::__is_null_pointer(__beg) && __beg != __end)
 212:/usr/include/c++/10/bits/basic_string.tcc **** 	  std::__throw_logic_error(__N("basic_string::"
 213:/usr/include/c++/10/bits/basic_string.tcc **** 				       "_M_construct null not valid"));
 214:/usr/include/c++/10/bits/basic_string.tcc **** 
 215:/usr/include/c++/10/bits/basic_string.tcc **** 	size_type __dnew = static_cast<size_type>(std::distance(__beg, __end));
 2727              		.loc 7 215 12 view .LVU752
 2728 0f54 630280D2 		mov	x3, 19
AARCH64 GAS  obj/Ch15_05.s 			page 85


 216:/usr/include/c++/10/bits/basic_string.tcc **** 
 217:/usr/include/c++/10/bits/basic_string.tcc **** 	if (__dnew > size_type(_S_local_capacity))
 218:/usr/include/c++/10/bits/basic_string.tcc **** 	  {
 219:/usr/include/c++/10/bits/basic_string.tcc **** 	    _M_data(_M_create(__dnew, size_type(0)));
 2729              		.loc 7 219 13 view .LVU753
 2730 0f58 020080D2 		mov	x2, 0
 2731              	.LBE1748:
 2732              	.LBE1747:
 2733              	.LBE1746:
 2734              	.LBE1745:
 2735              	.LBE1744:
 2736              	.LBE1743:
 2737              	.LBE1730:
 2738              	.LBE1729:
  92:Ch15_05.cpp   ****     const char nl = '\n';
 2739              		.loc 1 92 1 view .LVU754
 2740 0f5c FD030091 		mov	x29, sp
 2741 0f60 F35301A9 		stp	x19, x20, [sp, 16]
 2742              		.cfi_offset 19, -256
 2743              		.cfi_offset 20, -248
 2744              	.LBB1840:
 2745              	.LBB1832:
 2746              	.LBB1821:
 2747              	.LBB1740:
 2748              	.LBB1737:
 157:/usr/include/c++/10/bits/basic_string.h **** 
 2749              		.loc 6 157 35 view .LVU755
 2750 0f64 F3830291 		add	x19, sp, 160
 2751              	.LVL218:
 157:/usr/include/c++/10/bits/basic_string.h **** 
 2752              		.loc 6 157 35 view .LVU756
 2753              	.LBE1737:
 2754              	.LBE1740:
 2755              	.LBE1821:
 2756              	.LBB1822:
 2757              	.LBB1814:
 2758              	.LBB1807:
 2759              	.LBB1800:
 2760              	.LBB1793:
 2761              	.LBB1786:
 2762              		.loc 7 219 13 view .LVU757
 2763 0f68 E00313AA 		mov	x0, x19
 2764              	.LBE1786:
 2765              	.LBE1793:
 2766              	.LBE1800:
 2767              	.LBE1807:
 2768              	.LBE1814:
 2769              	.LBE1822:
 2770              	.LBE1832:
 2771              	.LBE1840:
  92:Ch15_05.cpp   ****     const char nl = '\n';
 2772              		.loc 1 92 1 view .LVU758
 2773 0f6c FB7305A9 		stp	x27, x28, [sp, 80]
 2774              		.cfi_offset 27, -192
 2775              		.cfi_offset 28, -184
 2776              	.LBB1841:
 2777              	.LBB1833:
AARCH64 GAS  obj/Ch15_05.s 			page 86


 2778              	.LBB1823:
 2779              	.LBB1815:
 2780              	.LBB1808:
 2781              	.LBB1801:
 2782              	.LBB1794:
 2783              	.LBB1787:
 2784              		.loc 7 219 13 view .LVU759
 2785 0f70 FC830391 		add	x28, sp, 224
 2786 0f74 E1031CAA 		mov	x1, x28
 2787              	.LBE1787:
 2788              	.LBE1794:
 2789              	.LBE1801:
 2790              	.LBE1808:
 2791              	.LBE1815:
 2792              	.LBE1823:
 2793              	.LBB1824:
 2794              	.LBB1741:
 2795              	.LBB1738:
 157:/usr/include/c++/10/bits/basic_string.h **** 
 2796              		.loc 6 157 35 view .LVU760
 2797 0f78 F4C30291 		add	x20, sp, 176
 2798              	.LVL219:
 157:/usr/include/c++/10/bits/basic_string.h **** 
 2799              		.loc 6 157 35 view .LVU761
 2800              	.LBE1738:
 2801              	.LBE1741:
 2802              	.LBE1824:
 2803              	.LBE1833:
 2804              	.LBE1841:
  92:Ch15_05.cpp   ****     const char nl = '\n';
 2805              		.loc 1 92 1 view .LVU762
 2806 0f7c F55B02A9 		stp	x21, x22, [sp, 32]
 2807              		.cfi_offset 21, -240
 2808              		.cfi_offset 22, -232
 2809              	.LBB1842:
 2810              	.LBB1843:
 2811              	.LBB1844:
 2812              	.LBB1845:
 2813              	.LBB1846:
 2814              	.LBB1847:
 2815              	.LBB1848:
 157:/usr/include/c++/10/bits/basic_string.h **** 
 2816              		.loc 6 157 35 view .LVU763
 2817 0f80 F5430391 		add	x21, sp, 208
 2818              	.LBE1848:
 2819              	.LBE1847:
 2820              	.LBE1846:
 2821              	.LBE1845:
 2822              	.LBE1844:
 2823              	.LBE1843:
 2824              	.LBE1842:
  92:Ch15_05.cpp   ****     const char nl = '\n';
 2825              		.loc 1 92 1 view .LVU764
 2826 0f84 F76303A9 		stp	x23, x24, [sp, 48]
 2827 0f88 F96B04A9 		stp	x25, x26, [sp, 64]
 2828              		.cfi_offset 23, -224
 2829              		.cfi_offset 24, -216
AARCH64 GAS  obj/Ch15_05.s 			page 87


 2830              		.cfi_offset 25, -208
 2831              		.cfi_offset 26, -200
 2832              	.LBB2237:
 2833              	.LBB2223:
 2834              	.LBB1933:
 2835              	.LBB1926:
 2836              	.LBB1855:
 2837              	.LBB1853:
 2838              	.LBB1851:
 157:/usr/include/c++/10/bits/basic_string.h **** 
 2839              		.loc 6 157 35 view .LVU765
 2840 0f8c F53300F9 		str	x21, [sp, 96]
 2841              	.LBE1851:
 2842              	.LBE1853:
 2843              	.LBE1855:
 2844              	.LBE1926:
 2845              	.LBE1933:
 2846              	.LBE2223:
 2847              	.LBE2237:
 2848              	.LBB2238:
 2849              	.LBB1834:
 2850              	.LBB1825:
 2851              	.LBB1742:
 2852              	.LBB1739:
 2853 0f90 F34700F9 		str	x19, [sp, 136]
 2854 0f94 F45300F9 		str	x20, [sp, 160]
 2855              	.LVL220:
 157:/usr/include/c++/10/bits/basic_string.h **** 
 2856              		.loc 6 157 35 view .LVU766
 2857              	.LBE1739:
 2858              	.LBE1742:
 2859              	.LBE1825:
 2860              	.LBB1826:
 2861              	.LBI1826:
 2862              		.file 8 "/usr/include/c++/10/bits/char_traits.h"
   1:/usr/include/c++/10/bits/char_traits.h **** // Character Traits for use by standard string and iostream -*- C++ -*-
   2:/usr/include/c++/10/bits/char_traits.h **** 
   3:/usr/include/c++/10/bits/char_traits.h **** // Copyright (C) 1997-2020 Free Software Foundation, Inc.
   4:/usr/include/c++/10/bits/char_traits.h **** //
   5:/usr/include/c++/10/bits/char_traits.h **** // This file is part of the GNU ISO C++ Library.  This library is free
   6:/usr/include/c++/10/bits/char_traits.h **** // software; you can redistribute it and/or modify it under the
   7:/usr/include/c++/10/bits/char_traits.h **** // terms of the GNU General Public License as published by the
   8:/usr/include/c++/10/bits/char_traits.h **** // Free Software Foundation; either version 3, or (at your option)
   9:/usr/include/c++/10/bits/char_traits.h **** // any later version.
  10:/usr/include/c++/10/bits/char_traits.h **** 
  11:/usr/include/c++/10/bits/char_traits.h **** // This library is distributed in the hope that it will be useful,
  12:/usr/include/c++/10/bits/char_traits.h **** // but WITHOUT ANY WARRANTY; without even the implied warranty of
  13:/usr/include/c++/10/bits/char_traits.h **** // MERCHANTABILITY or FITNESS FOR A PARTICULAR PURPOSE.  See the
  14:/usr/include/c++/10/bits/char_traits.h **** // GNU General Public License for more details.
  15:/usr/include/c++/10/bits/char_traits.h **** 
  16:/usr/include/c++/10/bits/char_traits.h **** // Under Section 7 of GPL version 3, you are granted additional
  17:/usr/include/c++/10/bits/char_traits.h **** // permissions described in the GCC Runtime Library Exception, version
  18:/usr/include/c++/10/bits/char_traits.h **** // 3.1, as published by the Free Software Foundation.
  19:/usr/include/c++/10/bits/char_traits.h **** 
  20:/usr/include/c++/10/bits/char_traits.h **** // You should have received a copy of the GNU General Public License and
  21:/usr/include/c++/10/bits/char_traits.h **** // a copy of the GCC Runtime Library Exception along with this program;
  22:/usr/include/c++/10/bits/char_traits.h **** // see the files COPYING3 and COPYING.RUNTIME respectively.  If not, see
AARCH64 GAS  obj/Ch15_05.s 			page 88


  23:/usr/include/c++/10/bits/char_traits.h **** // <http://www.gnu.org/licenses/>.
  24:/usr/include/c++/10/bits/char_traits.h **** 
  25:/usr/include/c++/10/bits/char_traits.h **** /** @file bits/char_traits.h
  26:/usr/include/c++/10/bits/char_traits.h ****  *  This is an internal header file, included by other library headers.
  27:/usr/include/c++/10/bits/char_traits.h ****  *  Do not attempt to use it directly. @headername{string}
  28:/usr/include/c++/10/bits/char_traits.h ****  */
  29:/usr/include/c++/10/bits/char_traits.h **** 
  30:/usr/include/c++/10/bits/char_traits.h **** //
  31:/usr/include/c++/10/bits/char_traits.h **** // ISO C++ 14882: 21  Strings library
  32:/usr/include/c++/10/bits/char_traits.h **** //
  33:/usr/include/c++/10/bits/char_traits.h **** 
  34:/usr/include/c++/10/bits/char_traits.h **** #ifndef _CHAR_TRAITS_H
  35:/usr/include/c++/10/bits/char_traits.h **** #define _CHAR_TRAITS_H 1
  36:/usr/include/c++/10/bits/char_traits.h **** 
  37:/usr/include/c++/10/bits/char_traits.h **** #pragma GCC system_header
  38:/usr/include/c++/10/bits/char_traits.h **** 
  39:/usr/include/c++/10/bits/char_traits.h **** #include <bits/stl_algobase.h>  // std::copy, std::fill_n
  40:/usr/include/c++/10/bits/char_traits.h **** #include <bits/postypes.h>      // For streampos
  41:/usr/include/c++/10/bits/char_traits.h **** #include <cwchar>               // For WEOF, wmemmove, wmemset, etc.
  42:/usr/include/c++/10/bits/char_traits.h **** #if __cplusplus > 201703L
  43:/usr/include/c++/10/bits/char_traits.h **** # include <compare>
  44:/usr/include/c++/10/bits/char_traits.h **** #endif
  45:/usr/include/c++/10/bits/char_traits.h **** 
  46:/usr/include/c++/10/bits/char_traits.h **** #ifndef _GLIBCXX_ALWAYS_INLINE
  47:/usr/include/c++/10/bits/char_traits.h **** # define _GLIBCXX_ALWAYS_INLINE inline __attribute__((__always_inline__))
  48:/usr/include/c++/10/bits/char_traits.h **** #endif
  49:/usr/include/c++/10/bits/char_traits.h **** 
  50:/usr/include/c++/10/bits/char_traits.h **** namespace __gnu_cxx _GLIBCXX_VISIBILITY(default)
  51:/usr/include/c++/10/bits/char_traits.h **** {
